Certificate:
    Data:
        Version: 3 (0x2)
        Serial Number:
            73:ee:10:c9:f6:a1:a9:d9:00:d4:d7:bb:d1:88:25:92:d0:5b:0c:91
        Signature Algorithm: sha256WithRSAEncryption
        Issuer: C = IN, ST = KA, L = BANGALORE, O = HOWA, OU = Client Root, CN = croot
        Validity
            Not Before: Feb 26 19:26:10 2023 GMT
            Not After : Feb 25 19:26:10 2028 GMT
        Subject: C = IN, ST = KA, L = BANGALORE, O = HOWA, OU = Client Intermediate, CN = cint
        Subject Public Key Info:
            Public Key Algorithm: rsaEncryption
                RSA Public-Key: (3072 bit)
                Modulus:
                    00:cb:54:f6:1e:31:6d:3b:c7:55:05:6d:20:ee:4c:
                    6f:7a:c7:d1:60:69:5a:2e:1b:9d:3b:a5:0a:8b:d2:
                    50:bd:7c:de:5f:11:18:dd:19:05:7d:90:96:f2:7f:
                    82:56:e7:c2:97:a6:ee:53:91:09:00:0b:53:7f:ad:
                    73:e3:1e:3f:f7:73:db:55:2c:43:f4:44:aa:7e:63:
                    c1:30:08:3d:4f:d3:45:30:a5:9e:d0:3d:21:aa:88:
                    7e:38:b1:f0:e2:0e:1e:a2:1f:ce:ef:09:e8:c3:0f:
                    ae:a4:89:15:d1:45:82:c1:c2:45:14:16:66:7a:64:
                    9d:9a:cd:c2:79:a4:62:86:39:23:6e:3b:27:fc:87:
                    ff:c3:7d:33:29:9a:dd:be:8a:68:ee:16:8c:8a:5f:
                    90:d9:64:c6:9d:89:dc:a2:db:03:76:54:11:fb:58:
                    0b:cb:f8:e8:22:09:7f:55:a2:bc:4c:e0:b0:a5:9b:
                    a1:8b:9a:c7:58:33:56:46:ee:d0:27:7d:36:97:a5:
                    68:1f:45:fc:65:bd:46:d8:61:22:df:72:72:6b:06:
                    04:9d:9d:39:36:b8:3f:1e:45:31:d9:a9:c0:32:85:
                    7d:80:c8:f2:95:13:2b:ba:ec:92:87:28:e4:83:cb:
                    ec:bb:a2:1e:c7:ba:23:07:72:07:d6:ce:13:50:ef:
                    7e:19:04:09:81:4e:cf:0b:1e:e0:e8:08:65:32:e9:
                    30:07:93:d7:7e:2e:d2:43:d3:49:25:fb:e6:4c:36:
                    24:95:f2:cf:87:05:f8:cc:d6:79:37:2b:8e:c0:00:
                    13:ee:cf:3a:d8:51:6f:15:6f:cd:10:b2:d5:eb:47:
                    46:24:63:fa:84:e1:b3:43:23:57:d1:b4:2a:ce:94:
                    b5:4e:36:bf:c2:cd:4b:63:4f:01:ca:04:87:cc:ff:
                    28:a6:8d:4b:3d:9d:75:7b:77:d8:7e:86:fa:1e:7d:
                    fc:66:98:75:7e:f5:60:35:49:4d:f5:d4:e0:a8:17:
                    f7:4f:af:fb:86:0e:d5:e0:d9:7b
                Exponent: 65537 (0x10001)
        X509v3 extensions:
            X509v3 Subject Key Identifier: 
                3D:2D:E3:AE:E4:39:6F:30:B7:F9:ED:AD:C6:C1:FA:EF:9B:01:03:50
            X509v3 Authority Key Identifier: 
                keyid:33:6B:06:65:0B:39:96:FD:FB:C8:83:FE:49:B1:61:39:03:25:A3:2E

            X509v3 Basic Constraints: critical
                CA:TRUE, pathlen:0
    Signature Algorithm: sha256WithRSAEncryption
         1c:37:bb:2b:80:cd:0f:42:6b:e8:38:91:81:48:f3:cb:1e:53:
         80:9c:c4:d7:97:a1:bc:c0:03:ad:29:7a:ec:55:7e:7b:ae:62:
         ca:00:18:f3:5b:35:5f:fc:34:02:d5:41:bb:a4:21:6d:82:c5:
         f5:31:e5:32:d1:df:49:de:e5:49:27:8a:a2:ab:3a:87:fe:80:
         7f:b1:1e:71:74:65:25:38:c2:80:06:5e:21:9b:84:41:9c:ea:
         40:78:bc:99:2c:fc:51:74:04:94:b6:9c:f9:4c:f7:1e:84:b4:
         d6:e1:76:0f:fb:c9:93:8b:c6:de:42:ba:fa:6c:eb:3f:90:f1:
         b2:49:e4:c9:52:0e:b4:be:0e:ce:23:21:58:43:ac:d5:5b:bc:
         1f:76:7e:cf:e9:aa:36:ff:a3:1e:e6:69:99:ad:9b:43:de:9a:
         97:f0:d1:55:55:3c:20:86:f7:0d:a2:8b:62:b3:a2:4c:71:35:
         36:74:21:ee:ff:15:e0:02:4d:8e:e4:5a:04:43:66:79:fe:a0:
         dc:a8:b8:c5:ea:d7:5e:2d:e7:10:f8:da:93:fa:4f:f8:d4:9f:
         b6:fb:e5:7d:06:1b:5e:4e:09:e5:ef:65:ec:a6:ed:73:96:8a:
         de:59:d5:15:54:5d:c1:0c:ec:d3:86:dd:90:cb:29:e2:ec:8f:
         4a:ea:b4:e0:da:0c:54:64:08:d2:d2:04:c1:a8:a5:f2:7b:a0:
         e3:e1:21:31:12:a3:4a:42:ad:e0:a8:d8:3c:cb:95:66:77:39:
         13:6d:11:5e:8c:ca:a9:44:a7:2e:9a:67:7f:06:29:dd:d0:2c:
         1c:c6:19:6a:6f:2b:c0:55:20:e3:7b:9c:46:86:b4:7d:ff:a4:
         13:c8:77:dc:00:f0:4e:f4:8a:ad:06:fe:07:29:7d:f7:6e:5d:
         ab:0a:9f:d6:4c:58:84:0d:ac:23:e5:1f:9e:d6:80:4f:87:24:
         95:65:6b:7e:a9:ed:83:56:f8:5e:1d:95:39:63:69:9b:72:2e:
         db:e9:5a:df:50:40
-----BEGIN CERTIFICATE-----
MIIEsTCCAxmgAwIBAgIUc+4QyfahqdkA1Ne70YglktBbDJEwDQYJKoZIhvcNAQEL
BQAwYzELMAkGA1UEBhMCSU4xCzAJBgNVBAgMAktBMRIwEAYDVQQHDAlCQU5HQUxP
UkUxDTALBgNVBAoMBEhPV0ExFDASBgNVBAsMC0NsaWVudCBSb290MQ4wDAYDVQQD
DAVjcm9vdDAeFw0yMzAyMjYxOTI2MTBaFw0yODAyMjUxOTI2MTBaMGoxCzAJBgNV
BAYTAklOMQswCQYDVQQIDAJLQTESMBAGA1UEBwwJQkFOR0FMT1JFMQ0wCwYDVQQK
DARIT1dBMRwwGgYDVQQLDBNDbGllbnQgSW50ZXJtZWRpYXRlMQ0wCwYDVQQDDARj
aW50MIIBojANBgkqhkiG9w0BAQEFAAOCAY8AMIIBigKCAYEAy1T2HjFtO8dVBW0g
7kxvesfRYGlaLhudO6UKi9JQvXzeXxEY3RkFfZCW8n+CVufCl6buU5EJAAtTf61z
4x4/93PbVSxD9ESqfmPBMAg9T9NFMKWe0D0hqoh+OLHw4g4eoh/O7wnoww+upIkV
0UWCwcJFFBZmemSdms3CeaRihjkjbjsn/If/w30zKZrdvopo7haMil+Q2WTGnYnc
otsDdlQR+1gLy/joIgl/VaK8TOCwpZuhi5rHWDNWRu7QJ302l6VoH0X8Zb1G2GEi
33JyawYEnZ05Nrg/HkUx2anAMoV9gMjylRMruuyShyjkg8vsu6Iex7ojB3IH1s4T
UO9+GQQJgU7PCx7g6AhlMukwB5PXfi7SQ9NJJfvmTDYklfLPhwX4zNZ5NyuOwAAT
7s862FFvFW/NELLV60dGJGP6hOGzQyNX0bQqzpS1Tja/ws1LY08BygSHzP8opo1L
PZ11e3fYfob6Hn38Zph1fvVgNUlN9dTgqBf3T6/7hg7V4Nl7AgMBAAGjVjBUMB0G
A1UdDgQWBBQ9LeOu5DlvMLf57a3GwfrvmwEDUDAfBgNVHSMEGDAWgBQzawZlCzmW
/fvIg/5JsWE5AyWjLjASBgNVHRMBAf8ECDAGAQH/AgEAMA0GCSqGSIb3DQEBCwUA
A4IBgQAcN7srgM0PQmvoOJGBSPPLHlOAnMTXl6G8wAOtKXrsVX57rmLKABjzWzVf
/DQC1UG7pCFtgsX1MeUy0d9J3uVJJ4qiqzqH/oB/sR5xdGUlOMKABl4hm4RBnOpA
eLyZLPxRdASUtpz5TPcehLTW4XYP+8mTi8beQrr6bOs/kPGySeTJUg60vg7OIyFY
Q6zVW7wfdn7P6ao2/6Me5mmZrZtD3pqX8NFVVTwghvcNootis6JMcTU2dCHu/xXg
Ak2O5FoEQ2Z5/qDcqLjF6tdeLecQ+NqT+k/41J+2++V9BhteTgnl72Xspu1zlore
WdUVVF3BDOzTht2Qyyni7I9K6rTg2gxUZAjS0gTBqKXye6Dj4SExEqNKQq3gqNg8
y5VmdzkTbRFejMqpRKcummd/Bind0CwcxhlqbyvAVSDje5xGhrR9/6QTyHfcAPBO
9IqtBv4HKX33bl2rCp/WTFiEDawj5R+e1oBPhySVZWt+qe2DVvheHZU5Y2mbci7b
6VrfUEA=
-----END CERTIFICATE-----

Certificate:
    Data:
        Version: 3 (0x2)
        Serial Number:
            79:8d:85:80:cc:5e:ce:06:ad:27:31:a6:1e:8d:50:50:af:7c:13:c9
        Signature Algorithm: sha256WithRSAEncryption
        Issuer: C = IN, ST = KA, L = BANGALORE, O = HOWA, OU = Client Root, CN = croot
        Validity
            Not Before: Feb 26 19:15:49 2023 GMT
            Not After : Feb 23 19:15:49 2033 GMT
        Subject: C = IN, ST = KA, L = BANGALORE, O = HOWA, OU = Client Root, CN = croot
        Subject Public Key Info:
            Public Key Algorithm: rsaEncryption
                RSA Public-Key: (3072 bit)
                Modulus:
                    00:b0:b1:23:67:5e:d4:fc:c1:2b:0a:ac:d9:c4:ff:
                    14:51:88:93:15:77:e9:2b:85:5c:06:36:70:f7:d7:
                    72:60:88:a6:1c:64:18:cf:b7:d7:b8:1b:09:36:dc:
                    c5:65:c6:c1:bd:49:92:19:f2:3f:1c:ba:e9:26:db:
                    09:7d:29:21:bf:85:c2:f3:70:5f:95:ab:49:2c:a3:
                    9b:18:2b:12:a0:4f:2d:3a:be:ee:18:78:8e:13:90:
                    85:10:77:c9:da:8c:0b:db:19:35:02:29:90:ca:cd:
                    ff:ed:0c:9d:79:f1:45:e6:5d:ae:30:6a:40:1f:52:
                    a4:90:51:b8:b2:75:a4:a2:8a:c1:d1:ff:6f:57:b5:
                    03:3e:a7:87:c8:6f:2e:1e:93:f5:bd:6f:2a:8a:e0:
                    d0:65:df:c5:3c:85:41:b0:cd:ca:10:d6:35:c7:53:
                    e7:be:ff:01:8a:2e:06:62:4d:55:f4:55:77:12:fb:
                    54:54:80:1a:e4:a9:1b:29:4c:86:4b:58:c6:23:9b:
                    25:08:e7:56:aa:3e:a6:46:c3:32:d1:d4:43:39:a3:
                    b7:95:bb:2d:6f:0c:c6:a5:7c:50:93:d3:2e:20:96:
                    e3:97:0f:53:94:08:d6:9a:94:74:45:07:e8:ac:f2:
                    ba:6d:f2:ea:4d:e5:bd:6e:e8:db:c1:78:d5:88:0c:
                    bc:68:f3:29:4c:5e:b4:f2:23:06:fd:48:3d:70:66:
                    52:bc:c4:cb:00:c9:a6:25:57:ce:87:18:9f:27:0b:
                    dc:fd:3d:77:f8:64:fa:32:18:22:e9:e2:b7:f6:6e:
                    1b:7b:80:13:a4:f0:fe:7c:0b:8b:ea:b6:26:1b:ed:
                    77:09:90:eb:6b:a3:ce:32:8d:80:b0:57:c4:a8:84:
                    2a:90:e1:15:22:df:43:e8:77:38:74:ee:41:2e:2b:
                    24:dd:e8:f0:f4:0e:bf:d6:b9:da:f1:7e:f0:95:ed:
                    ef:13:3d:b7:d3:8a:32:b2:df:c3:52:b4:4b:b9:e7:
                    08:61:82:72:e3:b2:77:c8:05:eb
                Exponent: 65537 (0x10001)
        X509v3 extensions:
            X509v3 Subject Key Identifier: 
                33:6B:06:65:0B:39:96:FD:FB:C8:83:FE:49:B1:61:39:03:25:A3:2E
            X509v3 Authority Key Identifier: 
                keyid:33:6B:06:65:0B:39:96:FD:FB:C8:83:FE:49:B1:61:39:03:25:A3:2E

            X509v3 Basic Constraints: critical
                CA:TRUE
    Signature Algorithm: sha256WithRSAEncryption
         8a:64:36:77:17:bd:ba:90:55:3e:cb:64:ca:c9:2c:63:1d:95:
         11:8d:2e:c4:bb:97:85:51:51:a9:ee:4b:d3:ab:98:ec:92:25:
         86:88:2d:81:aa:04:f0:5e:33:ae:9f:ed:24:1c:94:1b:85:8c:
         ff:03:96:a1:ff:11:3e:12:04:39:72:b3:1b:ec:78:f6:c0:7d:
         ce:54:00:76:15:80:62:8a:d1:b5:9d:a8:00:5c:ca:e9:63:a6:
         5c:8d:0d:c2:8a:32:7c:db:4c:f3:21:51:6b:b2:ad:f4:32:46:
         51:94:ec:96:e1:55:d1:3a:8d:14:79:eb:0d:62:69:9b:6d:29:
         f4:a4:c3:10:cd:b1:c1:a0:b1:32:0e:35:80:54:df:c3:8a:14:
         37:39:19:84:27:35:09:2f:d4:00:81:e6:12:56:93:2d:68:98:
         3e:ea:19:a1:e1:63:65:4a:16:4a:c4:19:4e:53:c0:17:d2:b7:
         63:27:7c:3e:c4:d5:5e:48:58:ee:05:85:9f:1f:b4:54:63:e7:
         27:e1:df:e7:c2:ef:d4:08:7d:fc:15:4e:61:75:ea:be:e8:50:
         c9:dd:fb:99:9a:5e:ec:1f:9d:72:99:e8:d5:a6:15:2b:2d:bd:
         70:c5:e3:46:b4:3d:7d:64:31:dd:90:da:29:7d:b0:0c:20:76:
         9a:0a:8b:76:67:3e:d5:4c:62:27:d1:73:0e:0f:4f:b0:32:32:
         62:ad:57:2c:e0:34:68:97:fe:08:51:80:88:85:a9:2d:2f:1f:
         4c:ad:33:8e:1c:1b:75:1f:14:86:24:dc:41:ec:bd:8c:ed:7e:
         74:b9:e0:e1:09:27:28:b3:ec:f4:97:41:6f:87:01:c0:15:89:
         b7:03:3b:0d:ad:6a:e6:2b:7f:bc:8f:52:f0:89:4d:29:1c:26:
         b1:4f:69:84:b3:83:a5:4b:09:ba:ad:34:09:0e:0e:71:d9:2f:
         f7:81:bc:cc:ca:42:a9:b7:4b:b9:a5:ea:d9:17:5b:ee:8d:76:
         08:60:6c:1d:2b:b0
-----BEGIN CERTIFICATE-----
MIIEpzCCAw+gAwIBAgIUeY2FgMxezgatJzGmHo1QUK98E8kwDQYJKoZIhvcNAQEL
BQAwYzELMAkGA1UEBhMCSU4xCzAJBgNVBAgMAktBMRIwEAYDVQQHDAlCQU5HQUxP
UkUxDTALBgNVBAoMBEhPV0ExFDASBgNVBAsMC0NsaWVudCBSb290MQ4wDAYDVQQD
DAVjcm9vdDAeFw0yMzAyMjYxOTE1NDlaFw0zMzAyMjMxOTE1NDlaMGMxCzAJBgNV
BAYTAklOMQswCQYDVQQIDAJLQTESMBAGA1UEBwwJQkFOR0FMT1JFMQ0wCwYDVQQK
DARIT1dBMRQwEgYDVQQLDAtDbGllbnQgUm9vdDEOMAwGA1UEAwwFY3Jvb3QwggGi
MA0GCSqGSIb3DQEBAQUAA4IBjwAwggGKAoIBgQCwsSNnXtT8wSsKrNnE/xRRiJMV
d+krhVwGNnD313JgiKYcZBjPt9e4Gwk23MVlxsG9SZIZ8j8cuukm2wl9KSG/hcLz
cF+Vq0kso5sYKxKgTy06vu4YeI4TkIUQd8najAvbGTUCKZDKzf/tDJ158UXmXa4w
akAfUqSQUbiydaSiisHR/29XtQM+p4fIby4ek/W9byqK4NBl38U8hUGwzcoQ1jXH
U+e+/wGKLgZiTVX0VXcS+1RUgBrkqRspTIZLWMYjmyUI51aqPqZGwzLR1EM5o7eV
uy1vDMalfFCT0y4gluOXD1OUCNaalHRFB+is8rpt8upN5b1u6NvBeNWIDLxo8ylM
XrTyIwb9SD1wZlK8xMsAyaYlV86HGJ8nC9z9PXf4ZPoyGCLp4rf2bht7gBOk8P58
C4vqtiYb7XcJkOtro84yjYCwV8SohCqQ4RUi30Podzh07kEuKyTd6PD0Dr/Wudrx
fvCV7e8TPbfTijKy38NStEu55whhgnLjsnfIBesCAwEAAaNTMFEwHQYDVR0OBBYE
FDNrBmULOZb9+8iD/kmxYTkDJaMuMB8GA1UdIwQYMBaAFDNrBmULOZb9+8iD/kmx
YTkDJaMuMA8GA1UdEwEB/wQFMAMBAf8wDQYJKoZIhvcNAQELBQADggGBAIpkNncX
vbqQVT7LZMrJLGMdlRGNLsS7l4VRUanuS9OrmOySJYaILYGqBPBeM66f7SQclBuF
jP8DlqH/ET4SBDlysxvsePbAfc5UAHYVgGKK0bWdqABcyuljplyNDcKKMnzbTPMh
UWuyrfQyRlGU7JbhVdE6jRR56w1iaZttKfSkwxDNscGgsTIONYBU38OKFDc5GYQn
NQkv1ACB5hJWky1omD7qGaHhY2VKFkrEGU5TwBfSt2MnfD7E1V5IWO4FhZ8ftFRj
5yfh3+fC79QIffwVTmF16r7oUMnd+5maXuwfnXKZ6NWmFSstvXDF40a0PX1kMd2Q
2il9sAwgdpoKi3ZnPtVMYifRcw4PT7AyMmKtVyzgNGiX/ghRgIiFqS0vH0ytM44c
G3UfFIYk3EHsvYztfnS54OEJJyiz7PSXQW+HAcAVibcDOw2tauYrf7yPUvCJTSkc
JrFPaYSzg6VLCbqtNAkODnHZL/eBvMzKQqm3S7ml6tkXW+6NdghgbB0rsA==
-----END CERTIFICATE-----
