Certificate Request:
    Data:
        Version: 1 (0x0)
        Subject: C = IN, ST = KA, L = BANGALORE, O = HOWA, OU = Client, CN = alice, emailAddress = alice@mysrv.local
        Subject Public Key Info:
            Public Key Algorithm: rsaEncryption
                Public-Key: (2048 bit)
                Modulus:
                    00:93:cf:c2:c2:f9:0c:74:cd:2a:63:d2:1e:82:35:
                    07:47:09:cc:d7:80:b1:52:1b:d6:ab:08:80:9d:4f:
                    1e:17:73:0f:93:f1:3d:52:24:8c:c2:aa:cb:26:42:
                    42:a8:6a:bb:69:fe:da:ca:4a:79:b1:0d:05:0d:00:
                    1c:64:e8:10:e9:7e:a4:40:41:94:8e:96:7e:d4:a2:
                    ba:f3:5c:3a:1f:ea:43:ad:28:ca:75:bf:f7:d9:80:
                    60:22:77:2a:53:0c:df:37:aa:86:74:f7:79:3f:67:
                    fb:e0:1d:0a:da:65:b8:d7:bd:21:3c:9a:c2:f9:32:
                    b0:9d:3e:e2:2f:ad:95:38:c9:ab:cc:f8:7f:45:93:
                    b1:32:6d:5b:29:2a:0d:dc:40:27:4a:8e:28:9a:52:
                    1b:8b:50:5d:90:ec:b2:6b:f6:11:a0:c5:e5:12:ba:
                    70:88:ce:ab:5d:3b:50:35:63:91:21:3c:cd:4e:94:
                    88:22:2f:a9:17:d4:0f:83:72:ab:a8:d1:12:d0:f8:
                    b0:63:b4:27:e8:c3:ae:33:9b:e0:f0:8a:5a:42:e4:
                    20:b1:bf:05:46:6d:8b:0b:4b:69:22:89:df:c8:34:
                    e7:ba:a8:9f:ab:cb:67:d5:e7:eb:a0:11:17:a1:fd:
                    1e:cd:59:d8:7f:c8:c6:e5:a4:d1:c9:f0:3e:d1:d4:
                    f7:87
                Exponent: 65537 (0x10001)
        Attributes:
            (none)
            Requested Extensions:
    Signature Algorithm: sha256WithRSAEncryption
    Signature Value:
        47:41:5e:33:97:7f:02:d6:25:0e:41:be:da:33:e3:75:bb:3d:
        b7:69:b9:8c:ed:3d:6f:6b:54:62:f9:fe:10:a3:e1:bf:55:05:
        8d:fb:50:b8:aa:ba:f1:d7:fc:27:9a:7b:e7:75:9c:97:58:18:
        89:d1:67:db:32:09:32:aa:a4:39:08:a2:df:9b:f1:8e:7c:e6:
        8e:65:3c:48:92:56:d3:a1:7d:a3:ae:9e:14:e8:22:da:33:c2:
        37:8f:02:01:bb:13:03:59:25:4b:e1:b9:3d:5b:ca:1d:eb:d7:
        4d:ee:de:52:d1:d2:b3:1d:ad:35:44:b9:b4:8c:0a:fa:79:43:
        e9:98:66:55:f9:cc:09:43:f8:77:12:c2:58:fb:7d:ce:59:85:
        16:c4:c1:39:83:7c:6e:7c:4c:85:08:2f:9d:37:ab:fa:ca:1c:
        30:c7:5a:ec:07:b4:e7:9f:e6:37:dc:2b:50:e6:96:0c:69:54:
        24:9f:19:e8:f5:d9:02:3f:73:60:8c:69:48:4d:05:7b:a3:f4:
        ef:9b:7a:b0:f9:c4:da:14:ed:ff:be:19:d5:f0:dc:0c:6e:96:
        ed:4f:ef:7a:0e:89:93:90:18:93:34:e1:db:90:93:1d:49:5f:
        08:70:12:b1:f5:0d:09:a8:40:93:e2:4d:83:fc:29:ce:c2:1a:
        43:15:6a:2c
-----BEGIN CERTIFICATE REQUEST-----
MIICxjCCAa4CAQAwgYAxCzAJBgNVBAYTAklOMQswCQYDVQQIDAJLQTESMBAGA1UE
BwwJQkFOR0FMT1JFMQ0wCwYDVQQKDARIT1dBMQ8wDQYDVQQLDAZDbGllbnQxDjAM
BgNVBAMMBWFsaWNlMSAwHgYJKoZIhvcNAQkBFhFhbGljZUBteXNydi5sb2NhbDCC
ASIwDQYJKoZIhvcNAQEBBQADggEPADCCAQoCggEBAJPPwsL5DHTNKmPSHoI1B0cJ
zNeAsVIb1qsIgJ1PHhdzD5PxPVIkjMKqyyZCQqhqu2n+2spKebENBQ0AHGToEOl+
pEBBlI6WftSiuvNcOh/qQ60oynW/99mAYCJ3KlMM3zeqhnT3eT9n++AdCtpluNe9
ITyawvkysJ0+4i+tlTjJq8z4f0WTsTJtWykqDdxAJ0qOKJpSG4tQXZDssmv2EaDF
5RK6cIjOq107UDVjkSE8zU6UiCIvqRfUD4Nyq6jREtD4sGO0J+jDrjOb4PCKWkLk
ILG/BUZtiwtLaSKJ38g057qon6vLZ9Xn66ARF6H9Hs1Z2H/IxuWk0cnwPtHU94cC
AwEAAaAAMA0GCSqGSIb3DQEBCwUAA4IBAQBHQV4zl38C1iUOQb7aM+N1uz23abmM
7T1va1Ri+f4Qo+G/VQWN+1C4qrrx1/wnmnvndZyXWBiJ0WfbMgkyqqQ5CKLfm/GO
fOaOZTxIklbToX2jrp4U6CLaM8I3jwIBuxMDWSVL4bk9W8od69dN7t5S0dKzHa01
RLm0jAr6eUPpmGZV+cwJQ/h3EsJY+33OWYUWxME5g3xufEyFCC+dN6v6yhwwx1rs
B7Tnn+Y33CtQ5pYMaVQknxno9dkCP3NgjGlITQV7o/Tvm3qw+cTaFO3/vhnV8NwM
bpbtT+96DomTkBiTNOHbkJMdSV8IcBKx9Q0JqECT4k2D/CnOwhpDFWos
-----END CERTIFICATE REQUEST-----
