Certificate:
    Data:
        Version: 3 (0x2)
        Serial Number:
            72:48:9b:67:7d:07:c8:d7:0a:40:90:eb:28:cd:8e:12:87:29:8e:7d
        Signature Algorithm: sha256WithRSAEncryption
        Issuer: C = IN, ST = KA, L = BANGALORE, O = HOWA, OU = Client Intermediate, CN = cint
        Validity
            Not Before: May  9 19:53:23 2025 GMT
            Not After : May  8 19:53:23 2030 GMT
        Subject: C = IN, ST = KA, L = BANGALORE, O = HOWA, OU = Client, CN = alice, emailAddress = alice@mysrv.local
        Subject Public Key Info:
            Public Key Algorithm: rsaEncryption
                Public-Key: (2048 bit)
                Modulus:
                    00:93:cf:c2:c2:f9:0c:74:cd:2a:63:d2:1e:82:35:
                    07:47:09:cc:d7:80:b1:52:1b:d6:ab:08:80:9d:4f:
                    1e:17:73:0f:93:f1:3d:52:24:8c:c2:aa:cb:26:42:
                    42:a8:6a:bb:69:fe:da:ca:4a:79:b1:0d:05:0d:00:
                    1c:64:e8:10:e9:7e:a4:40:41:94:8e:96:7e:d4:a2:
                    ba:f3:5c:3a:1f:ea:43:ad:28:ca:75:bf:f7:d9:80:
                    60:22:77:2a:53:0c:df:37:aa:86:74:f7:79:3f:67:
                    fb:e0:1d:0a:da:65:b8:d7:bd:21:3c:9a:c2:f9:32:
                    b0:9d:3e:e2:2f:ad:95:38:c9:ab:cc:f8:7f:45:93:
                    b1:32:6d:5b:29:2a:0d:dc:40:27:4a:8e:28:9a:52:
                    1b:8b:50:5d:90:ec:b2:6b:f6:11:a0:c5:e5:12:ba:
                    70:88:ce:ab:5d:3b:50:35:63:91:21:3c:cd:4e:94:
                    88:22:2f:a9:17:d4:0f:83:72:ab:a8:d1:12:d0:f8:
                    b0:63:b4:27:e8:c3:ae:33:9b:e0:f0:8a:5a:42:e4:
                    20:b1:bf:05:46:6d:8b:0b:4b:69:22:89:df:c8:34:
                    e7:ba:a8:9f:ab:cb:67:d5:e7:eb:a0:11:17:a1:fd:
                    1e:cd:59:d8:7f:c8:c6:e5:a4:d1:c9:f0:3e:d1:d4:
                    f7:87
                Exponent: 65537 (0x10001)
        X509v3 extensions:
            X509v3 Basic Constraints: 
                CA:FALSE
            X509v3 Key Usage: 
                Digital Signature, Non Repudiation, Key Encipherment, Data Encipherment
            X509v3 Extended Key Usage: 
                TLS Web Client Authentication
            X509v3 Subject Alternative Name: 
                email:alice@mysrv.local
            X509v3 Subject Key Identifier: 
                8F:1D:85:CF:39:1C:DE:50:31:44:86:4F:A0:A8:86:A4:1B:5F:21:E2
            X509v3 Authority Key Identifier: 
                7F:64:5C:94:30:5E:4E:13:2B:77:79:F3:28:C4:CF:C5:F6:0C:28:D3
    Signature Algorithm: sha256WithRSAEncryption
    Signature Value:
        20:29:eb:4d:9f:f7:66:e6:f0:16:ed:75:00:85:33:fe:ee:8c:
        cd:cc:3b:11:8a:03:4e:18:99:bc:c7:17:2b:c7:4b:2e:ee:d6:
        5d:5e:fd:3c:a1:9b:f2:e2:5d:a2:59:66:24:ce:91:55:0a:f9:
        ea:2c:89:e1:ad:5b:ad:01:e4:8f:51:c9:75:0e:56:0a:80:37:
        c1:e4:cd:96:cb:e5:e5:7a:cd:79:f9:15:be:95:17:27:28:3a:
        ca:3a:9d:49:79:85:bd:f7:04:18:7e:c5:b4:51:43:cc:2b:e0:
        f0:d7:9a:11:76:36:ec:9f:be:87:f8:ff:9b:93:92:02:94:3d:
        56:ba:b9:3f:50:99:9b:8e:9e:13:61:eb:cf:1b:66:63:11:1a:
        cf:33:40:c6:f4:bd:77:f1:53:38:d6:4c:d2:43:55:f2:e8:55:
        02:89:b6:bb:27:53:03:01:ba:fa:e5:e0:9f:c0:52:31:0a:49:
        9c:31:7d:a0:7f:0a:37:45:44:30:50:30:83:5e:4d:ac:4a:80:
        a6:48:4d:ab:cc:90:02:2c:36:9c:67:3e:58:f8:3d:6e:f5:76:
        56:d1:43:35:0d:16:80:23:84:07:e4:70:fb:79:cb:d2:10:92:
        a9:ee:91:c8:2e:ce:7a:56:cc:c0:99:00:3e:c3:73:0a:c3:01:
        e9:17:2b:34
-----BEGIN CERTIFICATE-----
MIIECDCCAvCgAwIBAgIUckibZ30HyNcKQJDrKM2OEocpjn0wDQYJKoZIhvcNAQEL
BQAwajELMAkGA1UEBhMCSU4xCzAJBgNVBAgMAktBMRIwEAYDVQQHDAlCQU5HQUxP
UkUxDTALBgNVBAoMBEhPV0ExHDAaBgNVBAsME0NsaWVudCBJbnRlcm1lZGlhdGUx
DTALBgNVBAMMBGNpbnQwHhcNMjUwNTA5MTk1MzIzWhcNMzAwNTA4MTk1MzIzWjCB
gDELMAkGA1UEBhMCSU4xCzAJBgNVBAgMAktBMRIwEAYDVQQHDAlCQU5HQUxPUkUx
DTALBgNVBAoMBEhPV0ExDzANBgNVBAsMBkNsaWVudDEOMAwGA1UEAwwFYWxpY2Ux
IDAeBgkqhkiG9w0BCQEWEWFsaWNlQG15c3J2LmxvY2FsMIIBIjANBgkqhkiG9w0B
AQEFAAOCAQ8AMIIBCgKCAQEAk8/CwvkMdM0qY9IegjUHRwnM14CxUhvWqwiAnU8e
F3MPk/E9UiSMwqrLJkJCqGq7af7aykp5sQ0FDQAcZOgQ6X6kQEGUjpZ+1KK681w6
H+pDrSjKdb/32YBgIncqUwzfN6qGdPd5P2f74B0K2mW4170hPJrC+TKwnT7iL62V
OMmrzPh/RZOxMm1bKSoN3EAnSo4omlIbi1BdkOyya/YRoMXlErpwiM6rXTtQNWOR
ITzNTpSIIi+pF9QPg3KrqNES0PiwY7Qn6MOuM5vg8IpaQuQgsb8FRm2LC0tpIonf
yDTnuqifq8tn1efroBEXof0ezVnYf8jG5aTRyfA+0dT3hwIDAQABo4GOMIGLMAkG
A1UdEwQCMAAwCwYDVR0PBAQDAgTwMBMGA1UdJQQMMAoGCCsGAQUFBwMCMBwGA1Ud
EQQVMBOBEWFsaWNlQG15c3J2LmxvY2FsMB0GA1UdDgQWBBSPHYXPORzeUDFEhk+g
qIakG18h4jAfBgNVHSMEGDAWgBR/ZFyUMF5OEyt3efMoxM/F9gwo0zANBgkqhkiG
9w0BAQsFAAOCAQEAICnrTZ/3ZubwFu11AIUz/u6Mzcw7EYoDThiZvMcXK8dLLu7W
XV79PKGb8uJdollmJM6RVQr56iyJ4a1brQHkj1HJdQ5WCoA3weTNlsvl5XrNefkV
vpUXJyg6yjqdSXmFvfcEGH7FtFFDzCvg8NeaEXY27J++h/j/m5OSApQ9Vrq5P1CZ
m46eE2HrzxtmYxEazzNAxvS9d/FTONZM0kNV8uhVAom2uydTAwG6+uXgn8BSMQpJ
nDF9oH8KN0VEMFAwg15NrEqApkhNq8yQAiw2nGc+WPg9bvV2VtFDNQ0WgCOEB+Rw
+3nL0hCSqe6RyC7OelbMwJkAPsNzCsMB6RcrNA==
-----END CERTIFICATE-----
