Certificate Request:
    Data:
        Version: 1 (0x0)
        Subject: C = IN, ST = KA, L = BANGALORE, O = HOWA, OU = Clients, CN = alice, emailAddress = alice@mysrv.local
        Subject Public Key Info:
            Public Key Algorithm: rsaEncryption
                Public-Key: (2048 bit)
                Modulus:
                    00:ba:1e:45:e7:de:73:e8:02:4c:94:52:32:c8:db:
                    66:6e:d8:07:4a:09:16:8f:eb:00:a3:45:75:41:42:
                    5a:48:1a:32:b3:a7:96:8a:8a:7c:41:13:24:ea:d1:
                    c2:50:f4:35:0e:72:57:11:ea:06:b7:77:fe:71:81:
                    33:f2:f0:82:a0:2d:03:2a:63:1d:59:30:7b:34:7b:
                    8b:19:9f:6d:75:3e:b1:38:14:e5:a3:b2:f4:b4:5a:
                    2c:8b:13:cb:27:4b:62:32:14:e2:bf:33:56:55:f4:
                    fd:22:27:81:c4:76:01:fd:4b:52:80:30:da:34:b2:
                    1d:ee:42:13:86:f4:32:48:ac:1c:1b:0d:d1:e2:12:
                    5c:bb:97:50:f8:0a:6b:39:a1:22:19:ff:bc:0e:95:
                    7b:de:dd:89:12:16:a9:82:ae:f6:fd:a7:56:0d:6e:
                    ba:e7:c8:ec:76:ad:45:5d:d5:6d:37:e5:06:e7:a5:
                    4c:cd:c4:ec:f2:b3:12:de:99:a6:34:91:b5:b7:5d:
                    66:bd:fa:bc:4c:9d:51:f0:d6:0b:cc:af:76:a7:b9:
                    16:3d:2c:54:99:0e:d0:e5:6f:93:6e:30:53:5b:7a:
                    51:6d:87:3a:cf:84:04:61:a6:e4:85:ba:6e:46:c4:
                    1c:0d:f3:f5:eb:e0:4b:6f:2c:7e:07:81:f5:ee:b2:
                    0b:d1
                Exponent: 65537 (0x10001)
        Attributes:
            (none)
            Requested Extensions:
    Signature Algorithm: sha256WithRSAEncryption
    Signature Value:
        47:f8:d7:0c:59:b9:fc:18:8d:fe:d4:6e:60:b9:1b:67:03:fa:
        60:7f:b5:6a:6c:7b:bd:16:9f:dd:0d:5b:ba:8c:8a:93:97:61:
        92:33:c0:06:88:32:04:4a:4f:39:a9:5c:0a:dc:c7:ea:72:26:
        9a:bc:4e:e9:ed:0a:73:7f:d0:c3:f6:62:ff:70:7d:6d:7a:7f:
        a7:8a:58:96:69:78:55:b0:5f:cc:50:66:2e:37:ee:e5:1b:b9:
        2a:22:ed:3d:4f:71:36:b2:bd:1f:c1:d5:61:7b:0d:aa:05:57:
        2e:ea:ed:00:6f:77:12:ef:c5:88:77:f4:44:55:86:c4:38:1f:
        28:a8:1a:06:e8:35:48:85:44:7f:1b:d1:86:12:eb:9e:7b:cd:
        25:fc:5d:fa:27:fb:bc:3f:2a:98:42:a1:4f:33:95:f9:2d:ef:
        43:86:83:b9:e0:e3:58:6a:1f:a3:f9:ac:2b:33:94:9b:7c:b2:
        3a:9f:2e:29:02:b1:38:da:35:09:41:1d:70:48:62:1b:02:27:
        2d:64:55:c7:28:1a:aa:e8:e5:ea:16:d5:f7:6a:cd:bc:ea:62:
        88:9c:9c:21:0e:7c:39:97:e1:b1:18:ba:bb:84:d0:d0:26:84:
        eb:68:a4:22:52:03:9e:59:29:85:3a:f4:dc:e3:71:5d:ce:b4:
        06:8e:06:fe
-----BEGIN CERTIFICATE REQUEST-----
MIICxzCCAa8CAQAwgYExCzAJBgNVBAYTAklOMQswCQYDVQQIDAJLQTESMBAGA1UE
BwwJQkFOR0FMT1JFMQ0wCwYDVQQKDARIT1dBMRAwDgYDVQQLDAdDbGllbnRzMQ4w
DAYDVQQDDAVhbGljZTEgMB4GCSqGSIb3DQEJARYRYWxpY2VAbXlzcnYubG9jYWww
ggEiMA0GCSqGSIb3DQEBAQUAA4IBDwAwggEKAoIBAQC6HkXn3nPoAkyUUjLI22Zu
2AdKCRaP6wCjRXVBQlpIGjKzp5aKinxBEyTq0cJQ9DUOclcR6ga3d/5xgTPy8IKg
LQMqYx1ZMHs0e4sZn211PrE4FOWjsvS0WiyLE8snS2IyFOK/M1ZV9P0iJ4HEdgH9
S1KAMNo0sh3uQhOG9DJIrBwbDdHiEly7l1D4Cms5oSIZ/7wOlXve3YkSFqmCrvb9
p1YNbrrnyOx2rUVd1W035QbnpUzNxOzysxLemaY0kbW3XWa9+rxMnVHw1gvMr3an
uRY9LFSZDtDlb5NuMFNbelFthzrPhARhpuSFum5GxBwN8/Xr4EtvLH4HgfXusgvR
AgMBAAGgADANBgkqhkiG9w0BAQsFAAOCAQEAR/jXDFm5/BiN/tRuYLkbZwP6YH+1
amx7vRaf3Q1buoyKk5dhkjPABogyBEpPOalcCtzH6nImmrxO6e0Kc3/Qw/Zi/3B9
bXp/p4pYlml4VbBfzFBmLjfu5Ru5KiLtPU9xNrK9H8HVYXsNqgVXLurtAG93Eu/F
iHf0RFWGxDgfKKgaBug1SIVEfxvRhhLrnnvNJfxd+if7vD8qmEKhTzOV+S3vQ4aD
ueDjWGofo/msKzOUm3yyOp8uKQKxONo1CUEdcEhiGwInLWRVxygaqujl6hbV92rN
vOpiiJycIQ58OZfhsRi6u4TQ0CaE62ikIlIDnlkphTr03ONxXc60Bo4G/g==
-----END CERTIFICATE REQUEST-----
