Certificate Request:
    Data:
        Version: 1 (0x0)
        Subject: C = IN, ST = KA, L = BANGALORE, O = HOWA, OU = Client Intermediate, CN = cint
        Subject Public Key Info:
            Public Key Algorithm: rsaEncryption
                Public-Key: (2048 bit)
                Modulus:
                    00:a6:7b:60:06:15:4a:74:60:54:9c:a0:ed:f7:30:
                    38:db:bc:2a:1d:8f:d7:6f:d1:6b:8a:be:56:fa:59:
                    5e:47:f3:6c:22:b5:a2:09:bf:39:6b:e0:93:f6:54:
                    03:14:11:5f:77:05:76:c5:df:e7:a7:6d:22:fd:e1:
                    98:da:39:2b:fc:19:2c:f1:2c:47:9c:59:bc:6a:14:
                    e2:a4:2c:e4:d1:e5:83:08:e3:c5:8b:f0:09:42:2d:
                    c4:d2:b7:7c:05:6d:df:89:fd:3c:0d:60:ba:e2:8e:
                    5f:c1:91:bf:0d:cd:01:9d:6e:8d:5d:cd:7c:cd:68:
                    21:50:78:be:5d:ae:8b:4d:02:09:63:99:f3:fb:ee:
                    32:e4:a6:af:26:66:7a:01:60:52:64:6b:0e:03:0b:
                    91:52:de:59:a0:8b:90:8c:a6:a1:77:de:51:0d:6e:
                    48:0f:0b:bb:bf:d6:eb:36:ef:5a:02:5d:59:4f:65:
                    36:10:78:44:f1:02:3b:d2:63:7b:13:c6:2e:4f:af:
                    48:9f:45:42:4a:98:32:2e:f8:00:93:35:f9:a2:58:
                    4c:95:f8:39:d9:72:fa:90:27:a4:f0:25:0d:5e:d9:
                    fb:b0:b8:aa:e2:47:42:31:8c:34:6a:74:32:3a:49:
                    c6:5a:41:de:af:4f:b9:09:02:e9:d8:67:07:f4:94:
                    07:c1
                Exponent: 65537 (0x10001)
        Attributes:
            (none)
            Requested Extensions:
    Signature Algorithm: sha256WithRSAEncryption
    Signature Value:
        79:27:c8:7d:c5:c2:b0:02:ab:77:5f:a4:4d:7c:39:6d:aa:f4:
        0a:00:3c:ff:74:32:74:9c:fb:60:b0:a6:ef:96:de:2d:80:36:
        94:3f:5c:21:8a:bb:1a:20:0a:3e:86:94:c1:6b:48:0d:28:8c:
        c7:59:03:8b:09:ac:e9:8a:73:89:c1:54:72:b4:41:17:b1:1c:
        3e:6b:50:16:14:99:8e:4a:ae:b1:18:98:90:3f:b5:eb:c0:75:
        27:81:23:ef:84:7b:b6:2e:f1:64:7b:e9:c2:01:3a:71:c3:9c:
        6a:80:41:c5:df:20:0b:c8:89:cb:11:c8:86:a2:d8:c2:4f:60:
        92:b8:6c:31:99:ec:73:7d:37:ac:2c:39:5e:dc:74:f5:0d:a0:
        99:9f:75:e5:ae:5b:f1:66:9c:31:52:cb:67:96:f8:02:c7:9c:
        31:86:8a:31:90:fd:64:99:e3:77:84:21:4b:3e:6c:fc:96:5b:
        0a:1f:43:bc:1c:6b:4a:3d:c7:c4:f7:d2:82:19:76:c6:39:f4:
        af:54:8f:83:db:fc:48:10:96:62:63:e9:34:d4:81:ce:86:18:
        65:58:0b:f2:b4:19:72:2c:c0:2b:30:6a:32:64:09:79:39:c1:
        df:ad:f6:f5:0f:9b:74:c6:58:fe:e6:7f:16:03:f8:eb:6c:e7:
        a1:75:5d:ea
-----BEGIN CERTIFICATE REQUEST-----
MIICrzCCAZcCAQAwajELMAkGA1UEBhMCSU4xCzAJBgNVBAgMAktBMRIwEAYDVQQH
DAlCQU5HQUxPUkUxDTALBgNVBAoMBEhPV0ExHDAaBgNVBAsME0NsaWVudCBJbnRl
cm1lZGlhdGUxDTALBgNVBAMMBGNpbnQwggEiMA0GCSqGSIb3DQEBAQUAA4IBDwAw
ggEKAoIBAQCme2AGFUp0YFScoO33MDjbvCodj9dv0WuKvlb6WV5H82witaIJvzlr
4JP2VAMUEV93BXbF3+enbSL94ZjaOSv8GSzxLEecWbxqFOKkLOTR5YMI48WL8AlC
LcTSt3wFbd+J/TwNYLrijl/Bkb8NzQGdbo1dzXzNaCFQeL5drotNAgljmfP77jLk
pq8mZnoBYFJkaw4DC5FS3lmgi5CMpqF33lENbkgPC7u/1us271oCXVlPZTYQeETx
AjvSY3sTxi5Pr0ifRUJKmDIu+ACTNfmiWEyV+DnZcvqQJ6TwJQ1e2fuwuKriR0Ix
jDRqdDI6ScZaQd6vT7kJAunYZwf0lAfBAgMBAAGgADANBgkqhkiG9w0BAQsFAAOC
AQEAeSfIfcXCsAKrd1+kTXw5bar0CgA8/3QydJz7YLCm75beLYA2lD9cIYq7GiAK
PoaUwWtIDSiMx1kDiwms6YpzicFUcrRBF7EcPmtQFhSZjkqusRiYkD+168B1J4Ej
74R7ti7xZHvpwgE6ccOcaoBBxd8gC8iJyxHIhqLYwk9gkrhsMZnsc303rCw5Xtx0
9Q2gmZ915a5b8WacMVLLZ5b4AsecMYaKMZD9ZJnjd4QhSz5s/JZbCh9DvBxrSj3H
xPfSghl2xjn0r1SPg9v8SBCWYmPpNNSBzoYYZVgL8rQZcizAKzBqMmQJeTnB3632
9Q+bdMZY/uZ/FgP462znoXVd6g==
-----END CERTIFICATE REQUEST-----
