Certificate Request:
    Data:
        Version: 1 (0x0)
        Subject: C = IN, ST = KA, L = BANGALORE, O = HOWA, OU = Client Intermediate, CN = cint
        Subject Public Key Info:
            Public Key Algorithm: rsaEncryption
                Public-Key: (2048 bit)
                Modulus:
                    00:93:d6:0e:79:4f:1f:18:17:d8:28:06:2e:65:61:
                    23:79:7e:37:37:1b:3b:66:7a:4c:61:a9:93:cc:9a:
                    a7:3c:c7:97:cf:66:b0:c0:4e:63:98:28:ce:79:1d:
                    46:ba:cb:45:44:e7:93:e6:e7:58:1d:db:04:e0:7b:
                    64:ca:df:e3:2c:ec:be:3d:85:32:80:ec:38:9a:a4:
                    60:5d:75:90:3f:42:5a:de:0f:d7:79:47:e5:cb:2f:
                    98:7d:f5:c1:4c:b0:e5:aa:61:a5:42:b1:a7:d4:cb:
                    05:1e:4a:f3:7a:a9:39:ec:5f:94:69:af:17:71:e9:
                    06:6b:16:74:a3:e3:f2:c5:ee:29:f7:95:dc:19:a7:
                    57:1f:a4:66:3c:8c:97:2b:2e:cf:a4:b2:d5:7a:ef:
                    99:85:61:08:b9:34:83:75:ef:d7:e0:33:ec:34:4c:
                    60:ff:0f:b2:a7:6b:bd:a6:b6:30:a0:8a:45:8b:95:
                    af:6d:6f:8c:a4:ba:29:f6:8a:62:af:38:37:c8:9e:
                    d7:e5:16:6c:5a:b3:5e:0c:c4:39:70:4b:01:3d:d2:
                    1f:8b:da:be:d6:c8:45:e6:4a:88:fb:5a:83:c1:1f:
                    3c:d9:4f:ec:09:55:6b:8f:22:ad:a1:80:4b:e7:c2:
                    fb:27:fe:ba:e4:56:23:60:4a:65:d9:50:c6:05:52:
                    da:d1
                Exponent: 65537 (0x10001)
        Attributes:
            (none)
            Requested Extensions:
    Signature Algorithm: sha256WithRSAEncryption
    Signature Value:
        47:13:33:03:68:24:43:6f:f8:15:29:1a:e1:ec:ba:84:8d:e7:
        ef:f2:31:0f:32:c3:16:3b:c9:1a:e2:03:16:33:56:f4:5b:2a:
        83:4b:ef:00:4e:21:44:d7:b6:3b:4c:03:df:c5:32:6b:d7:87:
        ea:13:eb:18:b4:01:f1:b1:cb:26:22:ac:34:30:26:c0:5c:36:
        19:45:8f:e1:b4:cd:6f:b3:f4:2c:c4:2d:1f:a7:02:83:12:14:
        32:20:d4:f8:92:d6:52:c0:12:81:65:5b:81:2a:ce:1b:3c:10:
        f9:db:fd:0f:bb:5f:d0:6d:2a:ed:c8:e0:1b:5b:66:76:0c:c0:
        22:c0:60:44:26:a9:db:41:18:1c:fb:8e:f2:18:8b:c1:af:41:
        1c:31:01:80:9a:0e:0a:20:de:dd:06:ad:dc:59:d5:46:15:a9:
        74:53:c1:e5:53:c6:93:cd:11:9a:c9:4a:bc:26:00:fa:88:23:
        98:b0:e7:a9:e3:8a:dc:29:8b:eb:36:64:4f:ee:40:3b:b0:a4:
        48:c8:c9:2a:b6:9b:37:9d:c9:67:1e:4b:03:2d:f8:69:2b:4f:
        2e:47:73:9f:7c:22:42:1c:5a:5c:53:f9:3c:ec:29:14:b5:c4:
        5f:26:8e:44:ab:a6:f2:54:20:bc:c1:04:10:bf:6d:c7:4e:60:
        8e:e1:40:b5
-----BEGIN CERTIFICATE REQUEST-----
MIICrzCCAZcCAQAwajELMAkGA1UEBhMCSU4xCzAJBgNVBAgMAktBMRIwEAYDVQQH
DAlCQU5HQUxPUkUxDTALBgNVBAoMBEhPV0ExHDAaBgNVBAsME0NsaWVudCBJbnRl
cm1lZGlhdGUxDTALBgNVBAMMBGNpbnQwggEiMA0GCSqGSIb3DQEBAQUAA4IBDwAw
ggEKAoIBAQCT1g55Tx8YF9goBi5lYSN5fjc3GztmekxhqZPMmqc8x5fPZrDATmOY
KM55HUa6y0VE55Pm51gd2wTge2TK3+Ms7L49hTKA7DiapGBddZA/QlreD9d5R+XL
L5h99cFMsOWqYaVCsafUywUeSvN6qTnsX5Rprxdx6QZrFnSj4/LF7in3ldwZp1cf
pGY8jJcrLs+kstV675mFYQi5NIN179fgM+w0TGD/D7Kna72mtjCgikWLla9tb4yk
uin2imKvODfIntflFmxas14MxDlwSwE90h+L2r7WyEXmSoj7WoPBHzzZT+wJVWuP
Iq2hgEvnwvsn/rrkViNgSmXZUMYFUtrRAgMBAAGgADANBgkqhkiG9w0BAQsFAAOC
AQEARxMzA2gkQ2/4FSka4ey6hI3n7/IxDzLDFjvJGuIDFjNW9Fsqg0vvAE4hRNe2
O0wD38Uya9eH6hPrGLQB8bHLJiKsNDAmwFw2GUWP4bTNb7P0LMQtH6cCgxIUMiDU
+JLWUsASgWVbgSrOGzwQ+dv9D7tf0G0q7cjgG1tmdgzAIsBgRCap20EYHPuO8hiL
wa9BHDEBgJoOCiDe3Qat3FnVRhWpdFPB5VPGk80RmslKvCYA+ogjmLDnqeOK3CmL
6zZkT+5AO7CkSMjJKrabN53JZx5LAy34aStPLkdzn3wiQhxaXFP5POwpFLXEXyaO
RKum8lQgvMEEEL9tx05gjuFAtQ==
-----END CERTIFICATE REQUEST-----
