Certificate:
    Data:
        Version: 3 (0x2)
        Serial Number:
            58:3e:41:6d:88:0c:40:b3:6f:f9:09:82:56:d2:a4:5b:ca:9b:f2:25
        Signature Algorithm: sha256WithRSAEncryption
        Issuer: C = IN, ST = KA, L = BANGALORE, O = HOWA, OU = Client Root, CN = croot
        Validity
            Not Before: May  9 19:50:02 2025 GMT
            Not After : May  8 19:50:02 2030 GMT
        Subject: C = IN, ST = KA, L = BANGALORE, O = HOWA, OU = Client Intermediate, CN = cint
        Subject Public Key Info:
            Public Key Algorithm: rsaEncryption
                Public-Key: (2048 bit)
                Modulus:
                    00:93:d6:0e:79:4f:1f:18:17:d8:28:06:2e:65:61:
                    23:79:7e:37:37:1b:3b:66:7a:4c:61:a9:93:cc:9a:
                    a7:3c:c7:97:cf:66:b0:c0:4e:63:98:28:ce:79:1d:
                    46:ba:cb:45:44:e7:93:e6:e7:58:1d:db:04:e0:7b:
                    64:ca:df:e3:2c:ec:be:3d:85:32:80:ec:38:9a:a4:
                    60:5d:75:90:3f:42:5a:de:0f:d7:79:47:e5:cb:2f:
                    98:7d:f5:c1:4c:b0:e5:aa:61:a5:42:b1:a7:d4:cb:
                    05:1e:4a:f3:7a:a9:39:ec:5f:94:69:af:17:71:e9:
                    06:6b:16:74:a3:e3:f2:c5:ee:29:f7:95:dc:19:a7:
                    57:1f:a4:66:3c:8c:97:2b:2e:cf:a4:b2:d5:7a:ef:
                    99:85:61:08:b9:34:83:75:ef:d7:e0:33:ec:34:4c:
                    60:ff:0f:b2:a7:6b:bd:a6:b6:30:a0:8a:45:8b:95:
                    af:6d:6f:8c:a4:ba:29:f6:8a:62:af:38:37:c8:9e:
                    d7:e5:16:6c:5a:b3:5e:0c:c4:39:70:4b:01:3d:d2:
                    1f:8b:da:be:d6:c8:45:e6:4a:88:fb:5a:83:c1:1f:
                    3c:d9:4f:ec:09:55:6b:8f:22:ad:a1:80:4b:e7:c2:
                    fb:27:fe:ba:e4:56:23:60:4a:65:d9:50:c6:05:52:
                    da:d1
                Exponent: 65537 (0x10001)
        X509v3 extensions:
            X509v3 Basic Constraints: critical
                CA:TRUE, pathlen:0
            X509v3 Subject Key Identifier: 
                7F:64:5C:94:30:5E:4E:13:2B:77:79:F3:28:C4:CF:C5:F6:0C:28:D3
            X509v3 Authority Key Identifier: 
                E8:62:E6:DE:47:F3:AB:B4:CC:FC:87:1F:CE:9C:B4:B7:55:D8:E5:51
    Signature Algorithm: sha256WithRSAEncryption
    Signature Value:
        46:46:e8:64:ad:90:90:db:ee:fa:ba:e0:af:96:bb:e2:f3:72:
        47:99:f0:12:fb:94:16:69:cf:f4:de:4b:75:16:f0:d1:8b:bc:
        c2:89:98:0d:8d:45:eb:3f:7c:87:15:23:b4:af:6d:5f:0d:4c:
        5f:2f:24:ba:9a:50:61:f9:f2:e3:89:e2:95:f5:27:1d:db:69:
        52:d0:46:f1:fd:8f:36:7b:41:32:3d:58:c6:60:4f:2b:42:c0:
        7f:46:91:24:c0:9e:7e:45:1d:01:a0:c6:f4:9a:d4:d5:31:b6:
        79:e1:6e:5c:e3:16:22:84:06:88:25:04:0c:8f:c3:09:88:9c:
        ec:1c:0c:b5:1d:ae:63:1a:02:66:90:d6:84:e1:38:27:21:27:
        de:00:8a:56:a0:b2:32:d5:05:c7:09:66:4d:d2:d7:b6:ca:b3:
        9e:b1:af:06:65:b4:b7:68:5b:22:0d:d2:a7:d8:c6:2d:d8:39:
        59:57:2d:0f:ab:60:6a:90:bf:02:8c:4b:b1:20:a1:e1:43:f7:
        ca:1d:26:1c:19:55:43:2e:49:34:60:ec:77:29:af:64:e4:35:
        d0:df:12:f7:84:17:65:d3:cb:b7:c6:6e:7c:8f:59:9b:a2:ed:
        6b:0e:10:d9:5b:45:c1:e9:43:54:77:05:8c:14:44:f9:a9:1e:
        f3:fc:dd:23
-----BEGIN CERTIFICATE-----
MIIDsTCCApmgAwIBAgIUWD5BbYgMQLNv+QmCVtKkW8qb8iUwDQYJKoZIhvcNAQEL
BQAwYzELMAkGA1UEBhMCSU4xCzAJBgNVBAgMAktBMRIwEAYDVQQHDAlCQU5HQUxP
UkUxDTALBgNVBAoMBEhPV0ExFDASBgNVBAsMC0NsaWVudCBSb290MQ4wDAYDVQQD
DAVjcm9vdDAeFw0yNTA1MDkxOTUwMDJaFw0zMDA1MDgxOTUwMDJaMGoxCzAJBgNV
BAYTAklOMQswCQYDVQQIDAJLQTESMBAGA1UEBwwJQkFOR0FMT1JFMQ0wCwYDVQQK
DARIT1dBMRwwGgYDVQQLDBNDbGllbnQgSW50ZXJtZWRpYXRlMQ0wCwYDVQQDDARj
aW50MIIBIjANBgkqhkiG9w0BAQEFAAOCAQ8AMIIBCgKCAQEAk9YOeU8fGBfYKAYu
ZWEjeX43Nxs7ZnpMYamTzJqnPMeXz2awwE5jmCjOeR1GustFROeT5udYHdsE4Htk
yt/jLOy+PYUygOw4mqRgXXWQP0Ja3g/XeUflyy+YffXBTLDlqmGlQrGn1MsFHkrz
eqk57F+Uaa8XcekGaxZ0o+Pyxe4p95XcGadXH6RmPIyXKy7PpLLVeu+ZhWEIuTSD
de/X4DPsNExg/w+yp2u9prYwoIpFi5WvbW+MpLop9opirzg3yJ7X5RZsWrNeDMQ5
cEsBPdIfi9q+1shF5kqI+1qDwR882U/sCVVrjyKtoYBL58L7J/665FYjYEpl2VDG
BVLa0QIDAQABo1YwVDASBgNVHRMBAf8ECDAGAQH/AgEAMB0GA1UdDgQWBBR/ZFyU
MF5OEyt3efMoxM/F9gwo0zAfBgNVHSMEGDAWgBToYubeR/OrtMz8hx/OnLS3Vdjl
UTANBgkqhkiG9w0BAQsFAAOCAQEARkboZK2QkNvu+rrgr5a74vNyR5nwEvuUFmnP
9N5LdRbw0Yu8womYDY1F6z98hxUjtK9tXw1MXy8kuppQYfny44nilfUnHdtpUtBG
8f2PNntBMj1YxmBPK0LAf0aRJMCefkUdAaDG9JrU1TG2eeFuXOMWIoQGiCUEDI/D
CYic7BwMtR2uYxoCZpDWhOE4JyEn3gCKVqCyMtUFxwlmTdLXtsqznrGvBmW0t2hb
Ig3Sp9jGLdg5WVctD6tgapC/AoxLsSCh4UP3yh0mHBlVQy5JNGDsdymvZOQ10N8S
94QXZdPLt8ZufI9Zm6Ltaw4Q2VtFwelDVHcFjBRE+ake8/zdIw==
-----END CERTIFICATE-----
