Certificate:
    Data:
        Version: 3 (0x2)
        Serial Number:
            72:04:d0:b2:73:ad:49:2c:38:16:3e:b0:f9:5c:1f:79:3c:49:b2:ac
        Signature Algorithm: sha256WithRSAEncryption
        Issuer: C = IN, ST = KA, L = BANGALORE, O = HOWA, OU = Client Root, CN = croot
        Validity
            Not Before: May  9 19:47:33 2025 GMT
            Not After : May  8 19:47:33 2030 GMT
        Subject: C = IN, ST = KA, L = BANGALORE, O = HOWA, OU = Client Root, CN = croot
        Subject Public Key Info:
            Public Key Algorithm: rsaEncryption
                Public-Key: (2048 bit)
                Modulus:
                    00:c6:05:07:3e:89:31:ee:08:54:cf:e5:00:21:78:
                    01:49:cd:84:e7:cf:92:6c:18:87:aa:a9:39:83:11:
                    ef:91:d5:26:e9:07:dd:46:c2:fd:6f:67:a1:e4:49:
                    74:9c:b4:ab:74:a8:37:2b:8e:93:34:c5:bc:1f:90:
                    49:a0:a5:c1:34:8d:80:50:37:fc:2e:b2:1f:93:53:
                    38:70:10:b1:64:ac:b3:6c:0e:c5:11:f1:08:ac:65:
                    fd:55:66:1f:84:e2:d3:8c:13:0f:ef:19:c1:61:7d:
                    e7:73:e8:2c:2f:88:18:c2:58:46:e1:4b:39:41:c2:
                    60:94:6d:3e:fa:3a:32:75:6a:db:d5:2f:78:32:f5:
                    55:89:d1:aa:4c:d2:cc:76:ca:d2:a2:7a:e3:1e:30:
                    cc:1d:06:12:2d:b6:08:1d:73:0d:6b:46:1c:08:1f:
                    2d:c9:71:0e:fb:08:5c:30:9a:6e:ec:99:15:eb:11:
                    06:88:42:8b:d8:78:4e:53:77:00:cc:61:10:ce:1f:
                    2e:82:4a:7f:19:4d:4c:8b:42:be:91:e6:69:5a:aa:
                    21:84:01:6b:e0:10:a8:5a:b3:03:0a:3d:b8:9c:b1:
                    2d:b7:27:8c:0c:77:d3:e4:a4:71:19:63:e5:f8:5e:
                    a5:ee:3a:40:b0:23:84:55:ba:41:30:df:56:37:01:
                    e5:11
                Exponent: 65537 (0x10001)
        X509v3 extensions:
            X509v3 Basic Constraints: critical
                CA:TRUE
            X509v3 Subject Key Identifier: 
                E8:62:E6:DE:47:F3:AB:B4:CC:FC:87:1F:CE:9C:B4:B7:55:D8:E5:51
    Signature Algorithm: sha256WithRSAEncryption
    Signature Value:
        c1:66:ee:7d:57:ab:ac:a5:94:59:15:57:53:4c:7c:e0:d4:e1:
        49:d3:e7:7a:75:da:4f:52:fe:fd:d9:5f:e2:19:f4:7f:f1:43:
        16:5e:47:55:b2:5b:d1:7d:09:45:02:b4:81:2e:85:37:fc:2f:
        9f:c3:ed:93:4b:c1:b8:1d:bb:6d:68:f7:2c:c0:87:e3:ea:aa:
        fc:4e:2d:6f:c7:85:94:2c:94:21:fa:5a:e6:6c:6f:7d:1c:04:
        2e:bb:e6:36:72:ff:33:2b:dd:cf:47:a0:d6:db:a4:2b:1c:53:
        6e:25:0d:4e:06:c4:af:47:92:ad:73:c7:1b:0b:93:7c:e6:f9:
        98:18:6f:78:a1:71:19:e4:d7:3f:70:16:35:30:6a:0d:cd:6f:
        0f:d6:16:66:66:d0:0e:6f:8c:d8:cf:57:5d:9b:35:41:eb:92:
        db:30:f0:06:78:e5:4e:e0:48:b7:85:ee:7f:0a:e6:87:1a:36:
        aa:20:3b:df:1e:57:66:38:20:da:b4:9f:7b:a1:9a:8d:56:df:
        0b:ee:2b:0c:a9:b1:55:e7:1c:c9:79:a9:9d:96:25:2a:51:ef:
        da:f1:aa:53:cf:c6:d6:9d:02:61:f3:e7:04:56:67:5b:ba:84:
        dc:96:a4:d9:8f:54:68:99:99:7a:be:12:ae:7a:15:65:07:f0:
        ca:11:8e:dc
-----BEGIN CERTIFICATE-----
MIIDhjCCAm6gAwIBAgIUcgTQsnOtSSw4Fj6w+VwfeTxJsqwwDQYJKoZIhvcNAQEL
BQAwYzELMAkGA1UEBhMCSU4xCzAJBgNVBAgMAktBMRIwEAYDVQQHDAlCQU5HQUxP
UkUxDTALBgNVBAoMBEhPV0ExFDASBgNVBAsMC0NsaWVudCBSb290MQ4wDAYDVQQD
DAVjcm9vdDAeFw0yNTA1MDkxOTQ3MzNaFw0zMDA1MDgxOTQ3MzNaMGMxCzAJBgNV
BAYTAklOMQswCQYDVQQIDAJLQTESMBAGA1UEBwwJQkFOR0FMT1JFMQ0wCwYDVQQK
DARIT1dBMRQwEgYDVQQLDAtDbGllbnQgUm9vdDEOMAwGA1UEAwwFY3Jvb3QwggEi
MA0GCSqGSIb3DQEBAQUAA4IBDwAwggEKAoIBAQDGBQc+iTHuCFTP5QAheAFJzYTn
z5JsGIeqqTmDEe+R1SbpB91Gwv1vZ6HkSXSctKt0qDcrjpM0xbwfkEmgpcE0jYBQ
N/wush+TUzhwELFkrLNsDsUR8QisZf1VZh+E4tOMEw/vGcFhfedz6CwviBjCWEbh
SzlBwmCUbT76OjJ1atvVL3gy9VWJ0apM0sx2ytKieuMeMMwdBhIttggdcw1rRhwI
Hy3JcQ77CFwwmm7smRXrEQaIQovYeE5TdwDMYRDOHy6CSn8ZTUyLQr6R5mlaqiGE
AWvgEKhaswMKPbicsS23J4wMd9PkpHEZY+X4XqXuOkCwI4RVukEw31Y3AeURAgMB
AAGjMjAwMA8GA1UdEwEB/wQFMAMBAf8wHQYDVR0OBBYEFOhi5t5H86u0zPyHH86c
tLdV2OVRMA0GCSqGSIb3DQEBCwUAA4IBAQDBZu59V6uspZRZFVdTTHzg1OFJ0+d6
ddpPUv792V/iGfR/8UMWXkdVslvRfQlFArSBLoU3/C+fw+2TS8G4HbttaPcswIfj
6qr8Ti1vx4WULJQh+lrmbG99HAQuu+Y2cv8zK93PR6DW26QrHFNuJQ1OBsSvR5Kt
c8cbC5N85vmYGG94oXEZ5Nc/cBY1MGoNzW8P1hZmZtAOb4zYz1ddmzVB65LbMPAG
eOVO4Ei3he5/CuaHGjaqIDvfHldmOCDatJ97oZqNVt8L7isMqbFV5xzJeamdliUq
Ue/a8apTz8bWnQJh8+cEVmdbuoTclqTZj1RomZl6vhKuehVlB/DKEY7c
-----END CERTIFICATE-----
