Certificate:
    Data:
        Version: 3 (0x2)
        Serial Number:
            24:73:7a:fa:b7:cd:a8:ce:91:f4:e5:82:6a:38:04:e0:40:eb:14:7b
        Signature Algorithm: sha256WithRSAEncryption
        Issuer: C = IN, ST = KA, L = BANGALORE, O = HOWA, OU = Client Root, CN = croot
        Validity
            Not Before: May  5 08:21:20 2025 GMT
            Not After : May  5 08:21:20 2026 GMT
        Subject: C = IN, ST = KA, L = BANGALORE, O = HOWA, OU = Client Root, CN = croot
        Subject Public Key Info:
            Public Key Algorithm: rsaEncryption
                Public-Key: (2048 bit)
                Modulus:
                    00:94:9d:d9:18:31:92:4e:76:c0:d5:9b:b9:c1:79:
                    8f:08:aa:8f:15:c8:c9:8a:1d:b7:f7:66:3b:6f:2a:
                    3a:45:26:fa:21:9c:1e:97:8e:e1:98:7a:e8:b0:dc:
                    b7:d6:02:54:21:b3:32:94:47:9b:1b:ef:e9:a4:5f:
                    ab:49:1e:61:33:bc:ba:18:79:26:40:1f:25:41:d7:
                    a9:c7:a5:7f:4b:ee:9e:68:a0:21:0c:cd:6d:30:09:
                    83:5d:87:b0:e6:4e:b6:82:39:81:6f:4c:9a:70:26:
                    09:34:c7:3e:26:c3:cd:a0:d6:4f:40:56:0c:fd:7a:
                    0a:8e:a3:18:23:51:a3:6d:c3:59:e2:44:fb:18:be:
                    1a:4e:a0:a8:ac:79:b9:21:79:fa:21:d8:f3:2e:cc:
                    66:41:f0:16:a0:fc:64:38:87:a6:52:41:fe:b6:e3:
                    66:12:ab:69:89:58:4d:36:2f:41:c9:0f:18:be:63:
                    0a:6b:48:c2:08:04:15:d6:9c:48:b7:4e:32:5e:52:
                    89:d3:1d:74:f4:af:51:84:88:67:32:44:39:44:b9:
                    e4:91:9c:be:f4:d8:a1:96:15:69:47:e1:61:4e:01:
                    31:c3:5a:4a:f9:16:ba:96:27:40:2b:ad:cd:15:fa:
                    c2:fa:ac:92:c0:39:c4:99:71:03:d4:18:c9:da:49:
                    fe:2d
                Exponent: 65537 (0x10001)
        X509v3 extensions:
            X509v3 Basic Constraints: critical
                CA:TRUE
            X509v3 Subject Key Identifier: 
                31:CF:11:F6:DC:F5:9F:4F:06:86:12:0E:5F:9C:91:FB:1E:2A:14:7D
    Signature Algorithm: sha256WithRSAEncryption
    Signature Value:
        3a:dd:13:05:6b:f3:67:7c:72:67:d0:42:ee:42:a7:82:6b:f4:
        5d:eb:ec:c6:8c:b2:c4:78:84:5c:2f:85:8c:14:d1:7a:88:08:
        7c:d3:8b:0e:4d:e3:85:c4:78:5f:23:be:62:55:09:9c:c9:82:
        21:59:c0:2a:cc:46:d8:7b:bb:56:3f:f5:ef:db:9d:81:1b:68:
        38:d4:7c:70:e9:e2:4f:9f:79:3c:7d:2c:2a:d2:a3:da:45:97:
        2d:7e:15:7f:8f:3c:26:20:37:6a:44:94:d7:1d:b6:c0:f5:9b:
        f1:f5:c3:70:a7:fa:51:f9:4d:11:da:71:58:45:d1:ee:60:56:
        12:8a:6f:3b:ce:32:54:8b:a0:4f:85:3a:fb:2e:13:fd:88:38:
        71:d9:77:d5:9d:92:e7:6a:84:56:73:60:8e:1c:c9:29:4a:34:
        16:b7:e2:8f:43:22:4c:9b:c8:27:c9:b3:93:46:db:b0:f5:aa:
        e4:30:79:a0:7c:a4:a4:ca:8b:0b:5e:24:56:3a:0d:c2:cf:98:
        ba:15:3f:81:ea:0f:2f:fc:87:f7:f8:7c:95:e8:9f:5f:2d:ba:
        d7:1b:b5:28:71:d4:02:df:8a:c7:df:71:35:5d:f7:32:40:5b:
        51:e7:1f:c9:83:02:d2:86:46:f6:a1:47:50:0e:75:17:d2:cc:
        09:71:dd:14
-----BEGIN CERTIFICATE-----
MIIDhjCCAm6gAwIBAgIUJHN6+rfNqM6R9OWCajgE4EDrFHswDQYJKoZIhvcNAQEL
BQAwYzELMAkGA1UEBhMCSU4xCzAJBgNVBAgMAktBMRIwEAYDVQQHDAlCQU5HQUxP
UkUxDTALBgNVBAoMBEhPV0ExFDASBgNVBAsMC0NsaWVudCBSb290MQ4wDAYDVQQD
DAVjcm9vdDAeFw0yNTA1MDUwODIxMjBaFw0yNjA1MDUwODIxMjBaMGMxCzAJBgNV
BAYTAklOMQswCQYDVQQIDAJLQTESMBAGA1UEBwwJQkFOR0FMT1JFMQ0wCwYDVQQK
DARIT1dBMRQwEgYDVQQLDAtDbGllbnQgUm9vdDEOMAwGA1UEAwwFY3Jvb3QwggEi
MA0GCSqGSIb3DQEBAQUAA4IBDwAwggEKAoIBAQCUndkYMZJOdsDVm7nBeY8Iqo8V
yMmKHbf3ZjtvKjpFJvohnB6XjuGYeuiw3LfWAlQhszKUR5sb7+mkX6tJHmEzvLoY
eSZAHyVB16nHpX9L7p5ooCEMzW0wCYNdh7DmTraCOYFvTJpwJgk0xz4mw82g1k9A
Vgz9egqOoxgjUaNtw1niRPsYvhpOoKisebkhefoh2PMuzGZB8Bag/GQ4h6ZSQf62
42YSq2mJWE02L0HJDxi+YwprSMIIBBXWnEi3TjJeUonTHXT0r1GEiGcyRDlEueSR
nL702KGWFWlH4WFOATHDWkr5FrqWJ0Arrc0V+sL6rJLAOcSZcQPUGMnaSf4tAgMB
AAGjMjAwMA8GA1UdEwEB/wQFMAMBAf8wHQYDVR0OBBYEFDHPEfbc9Z9PBoYSDl+c
kfseKhR9MA0GCSqGSIb3DQEBCwUAA4IBAQA63RMFa/NnfHJn0ELuQqeCa/Rd6+zG
jLLEeIRcL4WMFNF6iAh804sOTeOFxHhfI75iVQmcyYIhWcAqzEbYe7tWP/Xv252B
G2g41Hxw6eJPn3k8fSwq0qPaRZctfhV/jzwmIDdqRJTXHbbA9Zvx9cNwp/pR+U0R
2nFYRdHuYFYSim87zjJUi6BPhTr7LhP9iDhx2XfVnZLnaoRWc2COHMkpSjQWt+KP
QyJMm8gnybOTRtuw9arkMHmgfKSkyosLXiRWOg3Cz5i6FT+B6g8v/If3+HyV6J9f
LbrXG7UocdQC34rH33E1XfcyQFtR5x/JgwLShkb2oUdQDnUX0swJcd0U
-----END CERTIFICATE-----
