Certificate Request:
    Data:
        Version: 1 (0x0)
        Subject: C = IN, ST = KA, L = BANGALORE, O = HOWA, OU = Servers, CN = mysrv.local
        Subject Public Key Info:
            Public Key Algorithm: rsaEncryption
                Public-Key: (2048 bit)
                Modulus:
                    00:bc:82:4e:4f:6f:d5:52:64:b5:c6:d4:4f:9b:02:
                    44:14:c1:b1:b2:21:62:f0:16:1a:9b:cc:a1:47:34:
                    95:29:66:4e:08:8f:87:6b:3c:7d:68:e4:8c:11:f6:
                    4d:46:4d:8e:cb:bb:5d:5b:2a:d5:16:41:88:24:1c:
                    a4:80:43:8e:e5:9c:98:c1:c8:9a:34:ca:23:f4:41:
                    6b:d5:fd:9b:30:ea:50:21:ac:2b:f6:bb:52:23:e8:
                    6c:d3:50:4b:8b:2e:6e:4f:b5:c1:97:25:8f:87:77:
                    1c:38:99:90:5d:19:cd:d7:11:f8:85:cf:18:74:da:
                    d7:da:d8:a7:e0:3d:f1:46:9e:58:60:4b:e7:71:9a:
                    5f:b9:f6:07:0f:2c:60:74:ec:5e:3e:bd:5e:99:9f:
                    70:12:35:8d:16:df:5b:77:33:eb:bf:85:0e:74:9e:
                    9c:a0:8d:62:8f:3a:79:2f:85:62:67:06:0f:53:a9:
                    61:78:4c:3b:ca:4b:03:c8:ae:f6:b9:1f:48:78:15:
                    27:56:bd:a3:ea:61:3e:54:e4:fb:21:30:19:6f:6e:
                    8f:12:39:28:1b:83:9e:3a:c4:73:ed:e7:c1:c6:b4:
                    7a:7e:5a:9e:8b:67:25:5b:bb:f8:6e:d7:ad:c6:c3:
                    ab:df:66:5d:7a:26:75:56:7f:67:35:9e:01:49:31:
                    f6:cd
                Exponent: 65537 (0x10001)
        Attributes:
            (none)
            Requested Extensions:
    Signature Algorithm: sha256WithRSAEncryption
    Signature Value:
        8d:ba:a3:4a:4c:cf:b8:ea:60:b1:8c:8b:20:81:04:18:32:18:
        1b:ad:da:14:44:71:d7:85:69:54:d7:d5:86:5f:68:35:99:56:
        02:1a:f0:54:f8:c8:32:94:27:7f:72:00:a5:3d:8c:b2:48:ad:
        4f:6e:28:46:82:19:71:f8:fd:75:dc:1f:69:c8:4d:ab:10:28:
        c3:9c:4d:c7:57:a9:7b:49:c9:82:03:fe:a3:36:c8:3e:42:ec:
        28:b0:ea:b6:1a:e9:2b:fa:2a:c9:75:fd:fa:4c:7a:08:4a:1b:
        17:00:34:73:f4:26:d9:3c:51:63:c7:8b:1e:de:49:46:80:a7:
        ac:eb:ef:4c:36:a5:55:0e:72:56:e4:b8:35:a2:18:4c:f6:af:
        9c:d2:56:8a:21:2b:fc:48:df:c9:3f:29:a7:7b:5a:e0:08:f1:
        4e:43:16:53:e9:7e:70:10:bf:9f:65:12:3b:d6:45:31:5e:f6:
        5c:b6:55:5c:e4:de:9c:1c:87:65:ab:2c:a1:de:b6:24:d8:7f:
        07:12:20:11:69:b7:6b:fc:2b:33:b0:4a:e1:54:b5:fc:8a:c1:
        22:77:b5:fb:9f:8b:3d:80:19:3d:80:d4:73:0a:3f:28:58:40:
        a2:3c:db:7a:1c:48:05:78:c5:75:bf:de:b3:c5:7a:41:f6:79:
        03:03:47:d1
-----BEGIN CERTIFICATE REQUEST-----
MIICqjCCAZICAQAwZTELMAkGA1UEBhMCSU4xCzAJBgNVBAgMAktBMRIwEAYDVQQH
DAlCQU5HQUxPUkUxDTALBgNVBAoMBEhPV0ExEDAOBgNVBAsMB1NlcnZlcnMxFDAS
BgNVBAMMC215c3J2LmxvY2FsMIIBIjANBgkqhkiG9w0BAQEFAAOCAQ8AMIIBCgKC
AQEAvIJOT2/VUmS1xtRPmwJEFMGxsiFi8BYam8yhRzSVKWZOCI+Hazx9aOSMEfZN
Rk2Oy7tdWyrVFkGIJBykgEOO5ZyYwciaNMoj9EFr1f2bMOpQIawr9rtSI+hs01BL
iy5uT7XBlyWPh3ccOJmQXRnN1xH4hc8YdNrX2tin4D3xRp5YYEvncZpfufYHDyxg
dOxePr1emZ9wEjWNFt9bdzPrv4UOdJ6coI1ijzp5L4ViZwYPU6lheEw7yksDyK72
uR9IeBUnVr2j6mE+VOT7ITAZb26PEjkoG4OeOsRz7efBxrR6flqei2clW7v4btet
xsOr32ZdeiZ1Vn9nNZ4BSTH2zQIDAQABoAAwDQYJKoZIhvcNAQELBQADggEBAI26
o0pMz7jqYLGMiyCBBBgyGBut2hREcdeFaVTX1YZfaDWZVgIa8FT4yDKUJ39yAKU9
jLJIrU9uKEaCGXH4/XXcH2nITasQKMOcTcdXqXtJyYID/qM2yD5C7Ciw6rYa6Sv6
Ksl1/fpMeghKGxcANHP0Jtk8UWPHix7eSUaAp6zr70w2pVUOclbkuDWiGEz2r5zS
VoohK/xI38k/Kad7WuAI8U5DFlPpfnAQv59lEjvWRTFe9ly2VVzk3pwch2WrLKHe
tiTYfwcSIBFpt2v8KzOwSuFUtfyKwSJ3tfufiz2AGT2A1HMKPyhYQKI823ocSAV4
xXW/3rPFekH2eQMDR9E=
-----END CERTIFICATE REQUEST-----
