Certificate:
    Data:
        Version: 3 (0x2)
        Serial Number:
            2e:eb:b2:d8:76:9a:ca:51:21:43:61:39:7e:61:a3:87:e2:0b:14:b5
        Signature Algorithm: sha256WithRSAEncryption
        Issuer: C = IN, ST = KA, L = BANGALORE, O = HOWA, OU = Server Intermediate, CN = sint
        Validity
            Not Before: May  5 03:19:46 2025 GMT
            Not After : May  5 03:19:46 2026 GMT
        Subject: C = IN, ST = KA, L = BANGALORE, O = HOWA, OU = Servers, CN = mysrv.local
        Subject Public Key Info:
            Public Key Algorithm: rsaEncryption
                Public-Key: (2048 bit)
                Modulus:
                    00:bc:82:4e:4f:6f:d5:52:64:b5:c6:d4:4f:9b:02:
                    44:14:c1:b1:b2:21:62:f0:16:1a:9b:cc:a1:47:34:
                    95:29:66:4e:08:8f:87:6b:3c:7d:68:e4:8c:11:f6:
                    4d:46:4d:8e:cb:bb:5d:5b:2a:d5:16:41:88:24:1c:
                    a4:80:43:8e:e5:9c:98:c1:c8:9a:34:ca:23:f4:41:
                    6b:d5:fd:9b:30:ea:50:21:ac:2b:f6:bb:52:23:e8:
                    6c:d3:50:4b:8b:2e:6e:4f:b5:c1:97:25:8f:87:77:
                    1c:38:99:90:5d:19:cd:d7:11:f8:85:cf:18:74:da:
                    d7:da:d8:a7:e0:3d:f1:46:9e:58:60:4b:e7:71:9a:
                    5f:b9:f6:07:0f:2c:60:74:ec:5e:3e:bd:5e:99:9f:
                    70:12:35:8d:16:df:5b:77:33:eb:bf:85:0e:74:9e:
                    9c:a0:8d:62:8f:3a:79:2f:85:62:67:06:0f:53:a9:
                    61:78:4c:3b:ca:4b:03:c8:ae:f6:b9:1f:48:78:15:
                    27:56:bd:a3:ea:61:3e:54:e4:fb:21:30:19:6f:6e:
                    8f:12:39:28:1b:83:9e:3a:c4:73:ed:e7:c1:c6:b4:
                    7a:7e:5a:9e:8b:67:25:5b:bb:f8:6e:d7:ad:c6:c3:
                    ab:df:66:5d:7a:26:75:56:7f:67:35:9e:01:49:31:
                    f6:cd
                Exponent: 65537 (0x10001)
        X509v3 extensions:
            X509v3 Basic Constraints: 
                CA:FALSE
            X509v3 Key Usage: 
                Digital Signature, Non Repudiation, Key Encipherment, Data Encipherment
            X509v3 Extended Key Usage: 
                TLS Web Server Authentication
            X509v3 Subject Alternative Name: 
                DNS:mysrv.local, DNS:hr.mysrv.local, DNS:finance.mysrv.local, DNS:idp.local
            X509v3 Subject Key Identifier: 
                0D:4D:E7:B0:76:20:74:02:80:EC:77:70:C3:BA:6A:31:38:0A:E6:3B
            X509v3 Authority Key Identifier: 
                4A:C7:DD:F3:CB:8E:95:E9:E7:19:48:4F:F9:56:C3:72:2B:8C:8C:12
    Signature Algorithm: sha256WithRSAEncryption
    Signature Value:
        1c:c8:db:51:e1:0b:cb:4a:7f:95:2c:52:87:65:2b:5d:7a:80:
        ba:c9:81:93:70:0c:e8:da:cc:96:6e:ac:89:13:d9:b8:46:a4:
        0e:4f:00:6b:ae:ea:63:3b:da:de:5b:f7:5e:15:ee:36:9c:d1:
        c4:7e:85:5f:53:10:03:67:d6:40:44:54:2f:5f:2e:e8:3b:c3:
        63:d8:48:77:19:79:8f:eb:aa:2a:87:1e:e8:95:5f:b8:2b:76:
        c3:27:aa:45:82:51:f6:21:64:c3:70:d6:7a:a2:e5:3a:af:b9:
        74:44:77:70:22:36:97:fa:ed:81:aa:37:3e:a6:8f:86:67:db:
        45:f9:67:fe:26:a1:dd:3e:b4:93:f1:e4:fa:48:e9:ff:d0:56:
        78:21:e7:9a:b5:60:22:3a:0e:0c:3d:f5:dc:1e:31:f2:9e:ab:
        99:27:36:3a:a1:c3:ee:ff:5c:19:97:9c:4f:13:ee:f9:c3:cf:
        45:9d:3f:1c:82:cd:b7:8c:a9:0a:1d:d5:47:de:64:a7:ef:06:
        ee:ad:ee:c5:6d:b9:c7:75:29:86:c7:c8:75:e6:dd:35:5c:d2:
        fa:dc:99:3b:7f:2a:16:8a:3b:31:1e:f4:78:6d:63:10:69:37:
        2b:b7:f5:f8:2b:37:13:c8:f9:1d:3a:85:6c:bd:b3:92:1f:ea:
        a7:80:63:4e
-----BEGIN CERTIFICATE-----
MIIEFjCCAv6gAwIBAgIULuuy2HaaylEhQ2E5fmGjh+ILFLUwDQYJKoZIhvcNAQEL
BQAwajELMAkGA1UEBhMCSU4xCzAJBgNVBAgMAktBMRIwEAYDVQQHDAlCQU5HQUxP
UkUxDTALBgNVBAoMBEhPV0ExHDAaBgNVBAsME1NlcnZlciBJbnRlcm1lZGlhdGUx
DTALBgNVBAMMBHNpbnQwHhcNMjUwNTA1MDMxOTQ2WhcNMjYwNTA1MDMxOTQ2WjBl
MQswCQYDVQQGEwJJTjELMAkGA1UECAwCS0ExEjAQBgNVBAcMCUJBTkdBTE9SRTEN
MAsGA1UECgwESE9XQTEQMA4GA1UECwwHU2VydmVyczEUMBIGA1UEAwwLbXlzcnYu
bG9jYWwwggEiMA0GCSqGSIb3DQEBAQUAA4IBDwAwggEKAoIBAQC8gk5Pb9VSZLXG
1E+bAkQUwbGyIWLwFhqbzKFHNJUpZk4Ij4drPH1o5IwR9k1GTY7Lu11bKtUWQYgk
HKSAQ47lnJjByJo0yiP0QWvV/Zsw6lAhrCv2u1Ij6GzTUEuLLm5PtcGXJY+Hdxw4
mZBdGc3XEfiFzxh02tfa2KfgPfFGnlhgS+dxml+59gcPLGB07F4+vV6Zn3ASNY0W
31t3M+u/hQ50npygjWKPOnkvhWJnBg9TqWF4TDvKSwPIrva5H0h4FSdWvaPqYT5U
5PshMBlvbo8SOSgbg546xHPt58HGtHp+Wp6LZyVbu/hu163Gw6vfZl16JnVWf2c1
ngFJMfbNAgMBAAGjgbgwgbUwCQYDVR0TBAIwADALBgNVHQ8EBAMCBPAwEwYDVR0l
BAwwCgYIKwYBBQUHAwEwRgYDVR0RBD8wPYILbXlzcnYubG9jYWyCDmhyLm15c3J2
LmxvY2FsghNmaW5hbmNlLm15c3J2LmxvY2FsgglpZHAubG9jYWwwHQYDVR0OBBYE
FA1N57B2IHQCgOx3cMO6ajE4CuY7MB8GA1UdIwQYMBaAFErH3fPLjpXp5xlIT/lW
w3IrjIwSMA0GCSqGSIb3DQEBCwUAA4IBAQAcyNtR4QvLSn+VLFKHZStdeoC6yYGT
cAzo2syWbqyJE9m4RqQOTwBrrupjO9reW/deFe42nNHEfoVfUxADZ9ZARFQvXy7o
O8Nj2Eh3GXmP66oqhx7olV+4K3bDJ6pFglH2IWTDcNZ6ouU6r7l0RHdwIjaX+u2B
qjc+po+GZ9tF+Wf+JqHdPrST8eT6SOn/0FZ4IeeatWAiOg4MPfXcHjHynquZJzY6
ocPu/1wZl5xPE+75w89FnT8cgs23jKkKHdVH3mSn7wbure7FbbnHdSmGx8h15t01
XNL63Jk7fyoWijsxHvR4bWMQaTcrt/X4KzcTyPkdOoVsvbOSH+qngGNO
-----END CERTIFICATE-----
