Certificate Request:
    Data:
        Version: 1 (0x0)
        Subject: C = IN, ST = KA, L = BANGALORE, O = HOWA, OU = Servers, CN = mysrv.local
        Subject Public Key Info:
            Public Key Algorithm: rsaEncryption
                Public-Key: (2048 bit)
                Modulus:
                    00:c6:6a:39:dc:fa:48:28:ca:e3:e1:4c:87:f0:73:
                    15:ff:53:86:56:55:91:96:47:59:08:2d:ba:e1:02:
                    3d:8b:53:f4:a0:cc:6c:35:26:4d:a9:a1:bb:3d:36:
                    77:ca:8e:97:11:03:c6:01:f2:26:99:10:c1:20:e6:
                    3c:d1:3d:45:19:cb:b6:15:d6:4b:18:f9:ed:4a:df:
                    c1:33:74:aa:8c:2a:0e:4d:1e:f0:e6:07:f2:d1:12:
                    ca:2a:80:c9:2b:27:d2:7e:82:79:7d:5b:c3:fa:ec:
                    a7:5e:43:93:06:10:49:43:72:76:93:46:42:f4:e4:
                    c0:58:a6:6c:12:5d:c3:4d:ce:e2:a3:b7:1f:3d:80:
                    28:06:fb:d2:ec:47:b0:28:9a:56:ec:98:b6:cc:65:
                    b1:50:5c:6b:99:5e:ef:61:4a:6a:df:8a:38:ca:6d:
                    a0:85:63:b8:6b:d1:92:da:f3:c6:b0:de:35:24:fb:
                    ff:a1:2c:d8:e0:9d:3c:d6:f8:cc:84:66:c0:89:c8:
                    1c:b8:5b:59:0d:51:f3:55:c2:51:5a:ca:05:43:7b:
                    3c:ae:c8:54:06:15:d4:70:b0:12:89:ad:62:24:00:
                    a5:0e:22:6d:fd:be:de:97:ca:80:4f:ee:15:44:fd:
                    8b:29:59:9c:7d:0e:1a:d1:40:d0:32:49:de:87:bb:
                    dc:55
                Exponent: 65537 (0x10001)
        Attributes:
            (none)
            Requested Extensions:
    Signature Algorithm: sha256WithRSAEncryption
    Signature Value:
        ae:5d:41:e6:37:72:e6:66:f7:7a:6c:8a:d9:b6:db:f3:e3:0c:
        01:26:9e:3a:20:6e:22:13:90:28:a5:fd:fb:34:21:2a:17:32:
        7c:2d:51:4f:5a:99:d2:09:aa:4d:90:1d:ff:32:80:f1:c3:9e:
        53:79:87:27:3c:1e:79:4e:36:44:a3:9c:1f:d5:a5:4a:d6:ee:
        2a:41:63:86:7b:7b:b2:f8:b8:95:13:5e:2c:62:0f:94:62:6f:
        97:b8:07:a5:9d:83:af:6b:7e:02:dd:a2:bd:33:a4:9e:e9:d3:
        19:e2:c0:51:61:86:e7:c2:2c:a3:a4:1a:78:51:07:60:5d:02:
        6e:f1:5a:45:c0:5e:b2:ef:85:39:71:ce:c6:f1:ae:7f:c7:4c:
        6b:2b:bd:8f:c5:dd:38:af:42:05:53:40:6f:9c:4c:5d:be:59:
        5a:ee:e0:88:fd:fc:2e:98:38:2e:85:44:0d:3b:20:c0:95:95:
        55:a1:60:77:ea:83:75:36:30:51:4e:87:31:7b:42:11:45:ed:
        2c:5b:7e:fb:7e:8f:4e:ff:ab:92:b0:d7:50:a3:8a:7a:ef:fb:
        74:3e:aa:8a:57:97:98:9d:b5:09:e0:bb:a0:45:a1:3e:60:c5:
        25:03:3a:4a:d3:3a:bd:3c:19:2c:36:5a:4b:2c:ca:9d:6b:59:
        d9:c4:94:c7
-----BEGIN CERTIFICATE REQUEST-----
MIICqjCCAZICAQAwZTELMAkGA1UEBhMCSU4xCzAJBgNVBAgMAktBMRIwEAYDVQQH
DAlCQU5HQUxPUkUxDTALBgNVBAoMBEhPV0ExEDAOBgNVBAsMB1NlcnZlcnMxFDAS
BgNVBAMMC215c3J2LmxvY2FsMIIBIjANBgkqhkiG9w0BAQEFAAOCAQ8AMIIBCgKC
AQEAxmo53PpIKMrj4UyH8HMV/1OGVlWRlkdZCC264QI9i1P0oMxsNSZNqaG7PTZ3
yo6XEQPGAfImmRDBIOY80T1FGcu2FdZLGPntSt/BM3SqjCoOTR7w5gfy0RLKKoDJ
KyfSfoJ5fVvD+uynXkOTBhBJQ3J2k0ZC9OTAWKZsEl3DTc7io7cfPYAoBvvS7Eew
KJpW7Ji2zGWxUFxrmV7vYUpq34o4ym2ghWO4a9GS2vPGsN41JPv/oSzY4J081vjM
hGbAicgcuFtZDVHzVcJRWsoFQ3s8rshUBhXUcLASia1iJAClDiJt/b7el8qAT+4V
RP2LKVmcfQ4a0UDQMkneh7vcVQIDAQABoAAwDQYJKoZIhvcNAQELBQADggEBAK5d
QeY3cuZm93psitm22/PjDAEmnjogbiITkCil/fs0ISoXMnwtUU9amdIJqk2QHf8y
gPHDnlN5hyc8HnlONkSjnB/VpUrW7ipBY4Z7e7L4uJUTXixiD5Rib5e4B6Wdg69r
fgLdor0zpJ7p0xniwFFhhufCLKOkGnhRB2BdAm7xWkXAXrLvhTlxzsbxrn/HTGsr
vY/F3TivQgVTQG+cTF2+WVru4Ij9/C6YOC6FRA07IMCVlVWhYHfqg3U2MFFOhzF7
QhFF7Sxbfvt+j07/q5Kw11Cjinrv+3Q+qopXl5idtQngu6BFoT5gxSUDOkrTOr08
GSw2Wkssyp1rWdnElMc=
-----END CERTIFICATE REQUEST-----
