Certificate:
    Data:
        Version: 3 (0x2)
        Serial Number:
            2e:eb:b2:d8:76:9a:ca:51:21:43:61:39:7e:61:a3:87:e2:0b:14:b6
        Signature Algorithm: sha256WithRSAEncryption
        Issuer: C = IN, ST = KA, L = BANGALORE, O = HOWA, OU = Server Intermediate, CN = sint
        Validity
            Not Before: May  9 18:35:48 2025 GMT
            Not After : May  8 18:35:48 2030 GMT
        Subject: C = IN, ST = KA, L = BANGALORE, O = HOWA, OU = Servers, CN = mysrv.local
        Subject Public Key Info:
            Public Key Algorithm: rsaEncryption
                Public-Key: (2048 bit)
                Modulus:
                    00:c6:6a:39:dc:fa:48:28:ca:e3:e1:4c:87:f0:73:
                    15:ff:53:86:56:55:91:96:47:59:08:2d:ba:e1:02:
                    3d:8b:53:f4:a0:cc:6c:35:26:4d:a9:a1:bb:3d:36:
                    77:ca:8e:97:11:03:c6:01:f2:26:99:10:c1:20:e6:
                    3c:d1:3d:45:19:cb:b6:15:d6:4b:18:f9:ed:4a:df:
                    c1:33:74:aa:8c:2a:0e:4d:1e:f0:e6:07:f2:d1:12:
                    ca:2a:80:c9:2b:27:d2:7e:82:79:7d:5b:c3:fa:ec:
                    a7:5e:43:93:06:10:49:43:72:76:93:46:42:f4:e4:
                    c0:58:a6:6c:12:5d:c3:4d:ce:e2:a3:b7:1f:3d:80:
                    28:06:fb:d2:ec:47:b0:28:9a:56:ec:98:b6:cc:65:
                    b1:50:5c:6b:99:5e:ef:61:4a:6a:df:8a:38:ca:6d:
                    a0:85:63:b8:6b:d1:92:da:f3:c6:b0:de:35:24:fb:
                    ff:a1:2c:d8:e0:9d:3c:d6:f8:cc:84:66:c0:89:c8:
                    1c:b8:5b:59:0d:51:f3:55:c2:51:5a:ca:05:43:7b:
                    3c:ae:c8:54:06:15:d4:70:b0:12:89:ad:62:24:00:
                    a5:0e:22:6d:fd:be:de:97:ca:80:4f:ee:15:44:fd:
                    8b:29:59:9c:7d:0e:1a:d1:40:d0:32:49:de:87:bb:
                    dc:55
                Exponent: 65537 (0x10001)
        X509v3 extensions:
            X509v3 Basic Constraints: 
                CA:FALSE
            X509v3 Key Usage: 
                Digital Signature, Non Repudiation, Key Encipherment, Data Encipherment
            X509v3 Extended Key Usage: 
                TLS Web Server Authentication
            X509v3 Subject Alternative Name: 
                DNS:mysrv.local, DNS:hr.mysrv.local, DNS:finance.mysrv.local, DNS:idp.local
            X509v3 Subject Key Identifier: 
                32:26:E2:33:97:FC:CD:F6:F3:10:71:A5:A9:CC:11:FA:87:A6:E4:1B
            X509v3 Authority Key Identifier: 
                ED:BB:D4:E5:CF:0F:72:36:53:E0:AC:29:D6:D5:03:D4:6C:6A:6B:0F
    Signature Algorithm: sha256WithRSAEncryption
    Signature Value:
        6f:d5:5b:06:0a:14:ac:2b:5d:67:fd:00:1d:b8:61:d4:5c:c8:
        3e:ec:c0:59:1e:53:59:36:9a:3a:44:8d:f2:92:a7:48:35:cd:
        8f:7b:e8:78:7d:aa:1b:45:3e:5e:03:54:93:9e:77:77:58:40:
        83:9e:2f:13:b7:9f:2b:32:ef:91:25:7e:1d:1d:97:5d:41:a8:
        86:34:52:34:fb:40:f8:4c:d3:ed:03:df:65:02:20:0a:52:df:
        d0:b8:b3:ed:69:0f:26:54:ff:a0:89:43:cf:a0:c9:d7:32:df:
        3e:a2:19:37:73:6d:fe:ef:e0:d7:1e:2f:17:32:e4:24:96:ec:
        6c:0d:7f:a4:43:24:08:bb:fe:0f:07:35:87:d1:1a:60:0f:13:
        a7:ac:c9:bf:a1:29:33:fa:5a:b6:d9:03:ba:eb:a4:d2:1c:ea:
        15:f9:fd:6c:71:ea:8d:9e:29:8b:9c:9e:d1:c2:16:89:52:85:
        7c:14:9a:3b:f6:40:d6:4b:f4:30:c2:91:3a:1b:32:e2:50:6d:
        24:ee:d4:c9:bc:af:a5:11:2f:6f:b4:de:d2:ed:33:88:a0:ee:
        92:8b:96:99:28:25:33:e6:f1:19:72:0b:19:1a:09:30:4b:b6:
        d0:2d:2d:58:3c:18:02:4a:61:88:c0:b1:58:cc:d2:99:bb:69:
        56:8f:13:b0
-----BEGIN CERTIFICATE-----
MIIEFjCCAv6gAwIBAgIULuuy2HaaylEhQ2E5fmGjh+ILFLYwDQYJKoZIhvcNAQEL
BQAwajELMAkGA1UEBhMCSU4xCzAJBgNVBAgMAktBMRIwEAYDVQQHDAlCQU5HQUxP
UkUxDTALBgNVBAoMBEhPV0ExHDAaBgNVBAsME1NlcnZlciBJbnRlcm1lZGlhdGUx
DTALBgNVBAMMBHNpbnQwHhcNMjUwNTA5MTgzNTQ4WhcNMzAwNTA4MTgzNTQ4WjBl
MQswCQYDVQQGEwJJTjELMAkGA1UECAwCS0ExEjAQBgNVBAcMCUJBTkdBTE9SRTEN
MAsGA1UECgwESE9XQTEQMA4GA1UECwwHU2VydmVyczEUMBIGA1UEAwwLbXlzcnYu
bG9jYWwwggEiMA0GCSqGSIb3DQEBAQUAA4IBDwAwggEKAoIBAQDGajnc+kgoyuPh
TIfwcxX/U4ZWVZGWR1kILbrhAj2LU/SgzGw1Jk2pobs9NnfKjpcRA8YB8iaZEMEg
5jzRPUUZy7YV1ksY+e1K38EzdKqMKg5NHvDmB/LREsoqgMkrJ9J+gnl9W8P67Kde
Q5MGEElDcnaTRkL05MBYpmwSXcNNzuKjtx89gCgG+9LsR7AomlbsmLbMZbFQXGuZ
Xu9hSmrfijjKbaCFY7hr0ZLa88aw3jUk+/+hLNjgnTzW+MyEZsCJyBy4W1kNUfNV
wlFaygVDezyuyFQGFdRwsBKJrWIkAKUOIm39vt6XyoBP7hVE/YspWZx9DhrRQNAy
Sd6Hu9xVAgMBAAGjgbgwgbUwCQYDVR0TBAIwADALBgNVHQ8EBAMCBPAwEwYDVR0l
BAwwCgYIKwYBBQUHAwEwRgYDVR0RBD8wPYILbXlzcnYubG9jYWyCDmhyLm15c3J2
LmxvY2FsghNmaW5hbmNlLm15c3J2LmxvY2FsgglpZHAubG9jYWwwHQYDVR0OBBYE
FDIm4jOX/M328xBxpanMEfqHpuQbMB8GA1UdIwQYMBaAFO271OXPD3I2U+CsKdbV
A9RsamsPMA0GCSqGSIb3DQEBCwUAA4IBAQBv1VsGChSsK11n/QAduGHUXMg+7MBZ
HlNZNpo6RI3ykqdINc2Pe+h4faobRT5eA1STnnd3WECDni8Tt58rMu+RJX4dHZdd
QaiGNFI0+0D4TNPtA99lAiAKUt/QuLPtaQ8mVP+giUPPoMnXMt8+ohk3c23+7+DX
Hi8XMuQkluxsDX+kQyQIu/4PBzWH0RpgDxOnrMm/oSkz+lq22QO666TSHOoV+f1s
ceqNnimLnJ7RwhaJUoV8FJo79kDWS/QwwpE6GzLiUG0k7tTJvK+lES9vtN7S7TOI
oO6Si5aZKCUz5vEZcgsZGgkwS7bQLS1YPBgCSmGIwLFYzNKZu2lWjxOw
-----END CERTIFICATE-----
