Certificate:
    Data:
        Version: 3 (0x2)
        Serial Number:
            6c:13:f5:cc:f0:8e:7c:af:c0:83:12:5c:5c:68:26:40:35:28:d2:7f
        Signature Algorithm: sha256WithRSAEncryption
        Issuer: C = IN, ST = KA, L = BANGALORE, O = HOWA, OU = Server Root, CN = sroot
        Validity
            Not Before: May  5 03:03:51 2025 GMT
            Not After : May  5 03:03:51 2026 GMT
        Subject: C = IN, ST = KA, L = BANGALORE, O = HOWA, OU = Server Intermediate, CN = sint
        Subject Public Key Info:
            Public Key Algorithm: rsaEncryption
                Public-Key: (2048 bit)
                Modulus:
                    00:cf:d5:45:82:e7:0d:03:69:0f:36:41:8c:5b:6f:
                    db:cb:60:66:5e:01:59:e2:a9:0e:ba:29:cc:09:2a:
                    50:69:23:7a:cb:04:56:87:c0:09:a1:66:61:54:61:
                    8b:cb:d7:9b:c9:a5:05:4d:64:35:3d:86:dd:fb:97:
                    bc:7b:b1:f2:db:ed:22:31:30:d9:14:67:0f:b4:b4:
                    ac:cc:58:31:84:d7:92:ef:01:5c:14:2e:89:99:29:
                    7d:1b:c7:df:9d:a8:3b:12:f5:06:c5:03:3c:7e:e0:
                    39:2e:1d:c3:a5:e9:71:17:69:82:d9:f8:b3:fe:74:
                    ed:62:e4:69:2c:2a:b0:13:be:8b:6f:a3:9e:34:74:
                    c2:3f:0d:44:b1:7e:eb:1b:99:bb:7a:a5:88:61:29:
                    1b:ee:dd:29:19:f7:57:a3:23:7b:8a:de:8d:5f:45:
                    d8:34:2a:1d:1f:1d:26:6d:ae:17:f1:d0:6f:6d:40:
                    83:2a:48:72:c7:d8:2f:b4:f1:40:0e:85:6c:62:30:
                    20:12:06:c0:33:dc:8f:56:a6:28:3e:18:3a:e8:a0:
                    f4:76:1f:56:99:83:5e:73:9c:42:46:27:74:98:de:
                    b9:ae:c5:90:e0:a9:28:7d:52:30:31:e8:50:cf:c8:
                    cf:16:51:16:56:a7:af:bc:71:7f:46:15:e6:06:c9:
                    c6:ed
                Exponent: 65537 (0x10001)
        X509v3 extensions:
            X509v3 Basic Constraints: critical
                CA:TRUE, pathlen:0
            X509v3 Subject Key Identifier: 
                4A:C7:DD:F3:CB:8E:95:E9:E7:19:48:4F:F9:56:C3:72:2B:8C:8C:12
            X509v3 Authority Key Identifier: 
                87:8D:C7:FB:78:F9:93:0F:7A:57:B1:21:FC:AE:69:56:2B:12:0C:42
    Signature Algorithm: sha256WithRSAEncryption
    Signature Value:
        46:15:3d:13:92:49:a4:ee:15:20:d4:c5:cf:9a:d9:51:e4:30:
        9a:4d:dc:2e:3c:e9:0e:b1:eb:8e:44:08:f2:4e:c8:10:64:92:
        47:93:39:d7:18:6a:37:8e:40:3a:62:e5:09:77:a9:4f:c5:07:
        ec:f4:c6:ce:dd:8e:dc:f1:81:29:aa:2d:d5:a8:8d:c1:5b:04:
        0e:eb:68:70:0f:67:bb:c6:4e:a3:d7:c3:01:6b:6e:a9:22:ba:
        c1:dc:cb:0f:6b:07:2c:bf:33:aa:f6:79:91:e4:73:0b:93:7f:
        fb:bc:46:a0:0d:55:13:4d:fc:5d:43:a0:1a:d3:bb:76:b5:43:
        79:cc:2f:d2:09:47:e3:3a:c6:44:9d:9b:50:f3:f4:71:bb:75:
        5d:14:c5:f4:08:aa:1b:a2:1a:e5:5c:98:65:35:8c:b2:dc:c6:
        84:5a:8c:13:1a:c6:61:5a:69:c9:76:6b:b0:44:97:90:24:94:
        d0:a9:b6:46:5d:9f:6f:74:bb:73:1d:26:e3:af:d4:1d:9f:8e:
        17:01:ef:2c:5b:12:3c:ca:a8:9c:6a:cc:c9:90:47:53:59:9f:
        ea:98:03:27:c7:48:81:92:6c:c5:34:de:23:a0:d7:5b:59:8c:
        53:60:f6:8f:0a:3c:52:9c:0a:43:47:6c:b5:bc:d3:80:fd:28:
        bb:80:90:ce
-----BEGIN CERTIFICATE-----
MIIDsTCCApmgAwIBAgIUbBP1zPCOfK/AgxJcXGgmQDUo0n8wDQYJKoZIhvcNAQEL
BQAwYzELMAkGA1UEBhMCSU4xCzAJBgNVBAgMAktBMRIwEAYDVQQHDAlCQU5HQUxP
UkUxDTALBgNVBAoMBEhPV0ExFDASBgNVBAsMC1NlcnZlciBSb290MQ4wDAYDVQQD
DAVzcm9vdDAeFw0yNTA1MDUwMzAzNTFaFw0yNjA1MDUwMzAzNTFaMGoxCzAJBgNV
BAYTAklOMQswCQYDVQQIDAJLQTESMBAGA1UEBwwJQkFOR0FMT1JFMQ0wCwYDVQQK
DARIT1dBMRwwGgYDVQQLDBNTZXJ2ZXIgSW50ZXJtZWRpYXRlMQ0wCwYDVQQDDARz
aW50MIIBIjANBgkqhkiG9w0BAQEFAAOCAQ8AMIIBCgKCAQEAz9VFgucNA2kPNkGM
W2/by2BmXgFZ4qkOuinMCSpQaSN6ywRWh8AJoWZhVGGLy9ebyaUFTWQ1PYbd+5e8
e7Hy2+0iMTDZFGcPtLSszFgxhNeS7wFcFC6JmSl9G8ffnag7EvUGxQM8fuA5Lh3D
pelxF2mC2fiz/nTtYuRpLCqwE76Lb6OeNHTCPw1EsX7rG5m7eqWIYSkb7t0pGfdX
oyN7it6NX0XYNCodHx0mba4X8dBvbUCDKkhyx9gvtPFADoVsYjAgEgbAM9yPVqYo
Phg66KD0dh9WmYNec5xCRid0mN65rsWQ4KkofVIwMehQz8jPFlEWVqevvHF/RhXm
BsnG7QIDAQABo1YwVDASBgNVHRMBAf8ECDAGAQH/AgEAMB0GA1UdDgQWBBRKx93z
y46V6ecZSE/5VsNyK4yMEjAfBgNVHSMEGDAWgBSHjcf7ePmTD3pXsSH8rmlWKxIM
QjANBgkqhkiG9w0BAQsFAAOCAQEARhU9E5JJpO4VINTFz5rZUeQwmk3cLjzpDrHr
jkQI8k7IEGSSR5M51xhqN45AOmLlCXepT8UH7PTGzt2O3PGBKaot1aiNwVsEDuto
cA9nu8ZOo9fDAWtuqSK6wdzLD2sHLL8zqvZ5keRzC5N/+7xGoA1VE038XUOgGtO7
drVDecwv0glH4zrGRJ2bUPP0cbt1XRTF9AiqG6Ia5VyYZTWMstzGhFqMExrGYVpp
yXZrsESXkCSU0Km2Rl2fb3S7cx0m46/UHZ+OFwHvLFsSPMqonGrMyZBHU1mf6pgD
J8dIgZJsxTTeI6DXW1mMU2D2jwo8UpwKQ0dstbzTgP0ou4CQzg==
-----END CERTIFICATE-----
Certificate:
    Data:
        Version: 3 (0x2)
        Serial Number:
            09:fc:98:67:83:6a:2d:44:48:99:45:ae:2c:05:88:fc:fa:6e:54:7a
        Signature Algorithm: sha256WithRSAEncryption
        Issuer: C = IN, ST = KA, L = BANGALORE, O = HOWA, OU = Server Root, CN = sroot
        Validity
            Not Before: May  5 02:53:13 2025 GMT
            Not After : May  5 02:53:13 2026 GMT
        Subject: C = IN, ST = KA, L = BANGALORE, O = HOWA, OU = Server Root, CN = sroot
        Subject Public Key Info:
            Public Key Algorithm: rsaEncryption
                Public-Key: (2048 bit)
                Modulus:
                    00:b2:d0:d0:bf:dc:ec:50:1f:ae:e5:d9:5d:79:3d:
                    2e:90:e5:c5:44:70:c0:38:b7:2a:6e:c4:ef:8a:f7:
                    4a:83:b2:bd:39:e8:36:33:3b:06:78:50:7a:da:ec:
                    42:ec:b9:52:75:a4:2e:e6:b0:cc:82:b1:ba:ec:0f:
                    b2:f2:55:a3:20:b4:b4:bc:17:c8:9c:7c:18:d3:45:
                    0e:37:64:05:7f:15:fb:36:12:e6:70:de:e7:c6:29:
                    f5:07:38:80:a8:c7:4c:8d:0e:71:52:c7:93:0c:79:
                    e5:f6:8d:cd:0f:07:21:19:1a:9a:e6:ae:3e:fb:b2:
                    d2:bb:9e:4e:fb:96:f3:ed:e3:76:ef:f2:7f:41:e2:
                    19:e1:10:87:f8:99:f3:4e:1c:0a:9e:ff:bc:6e:52:
                    d7:11:82:bd:e8:3a:44:c3:2d:11:6f:8a:0b:a9:9f:
                    c1:98:59:61:0c:2b:81:99:82:77:18:b4:e1:57:91:
                    bd:fc:0f:14:96:7b:15:3f:4c:c0:9a:72:4e:93:84:
                    52:18:91:a3:a9:ef:1e:0f:54:c4:9e:99:a4:fd:3d:
                    30:85:06:e4:06:3b:3f:b8:3a:19:5f:96:01:49:05:
                    c4:3e:b1:54:c5:0a:e9:64:c0:a8:66:69:00:c6:a0:
                    c1:fc:4d:82:5b:5f:48:c3:93:0b:35:b7:ef:03:23:
                    2c:d5
                Exponent: 65537 (0x10001)
        X509v3 extensions:
            X509v3 Basic Constraints: critical
                CA:TRUE
            X509v3 Subject Key Identifier: 
                87:8D:C7:FB:78:F9:93:0F:7A:57:B1:21:FC:AE:69:56:2B:12:0C:42
    Signature Algorithm: sha256WithRSAEncryption
    Signature Value:
        18:17:3a:50:e8:b5:2c:48:49:56:7f:50:be:4a:ef:00:e3:f1:
        f7:90:67:9f:ce:cf:ab:e8:71:5f:41:33:eb:96:9f:6f:37:dd:
        4a:f2:3c:1e:68:21:14:b2:5c:ad:c6:5b:76:54:1a:ca:01:69:
        a9:54:c4:e5:c1:20:e8:cf:1a:96:0d:bb:6b:d1:2d:4c:ad:ed:
        bc:a7:ad:7d:a5:88:aa:65:a1:73:ca:e7:44:50:c5:44:fe:c2:
        b0:60:5e:bd:ae:1c:f8:93:31:d2:b2:93:6d:44:f1:f0:23:f9:
        2b:61:87:08:23:4d:40:bd:31:5b:d1:30:00:22:fc:af:e3:99:
        f3:ef:4c:d2:38:ff:8d:a4:84:99:81:2e:55:8c:a5:b3:6e:79:
        98:8f:a1:62:6f:f6:59:6b:4e:28:cc:d5:9b:eb:2b:2f:60:8d:
        ba:01:84:1f:e8:c3:cd:06:14:ab:de:c6:e8:6a:6c:7c:e0:ad:
        6a:d9:d1:c4:8d:96:8c:bf:d8:2c:8a:21:4e:17:e0:45:d2:fc:
        1f:0d:de:9e:d7:17:b6:86:06:07:eb:b5:dd:74:3f:4f:3e:c0:
        a9:fe:ea:e0:3d:c2:8a:dc:e8:5f:fa:91:1e:c9:97:91:3a:65:
        17:26:7c:73:80:2d:15:d5:3f:61:36:c4:bc:b9:2a:0c:3e:05:
        ff:29:87:0b
-----BEGIN CERTIFICATE-----
MIIDhjCCAm6gAwIBAgIUCfyYZ4NqLURImUWuLAWI/PpuVHowDQYJKoZIhvcNAQEL
BQAwYzELMAkGA1UEBhMCSU4xCzAJBgNVBAgMAktBMRIwEAYDVQQHDAlCQU5HQUxP
UkUxDTALBgNVBAoMBEhPV0ExFDASBgNVBAsMC1NlcnZlciBSb290MQ4wDAYDVQQD
DAVzcm9vdDAeFw0yNTA1MDUwMjUzMTNaFw0yNjA1MDUwMjUzMTNaMGMxCzAJBgNV
BAYTAklOMQswCQYDVQQIDAJLQTESMBAGA1UEBwwJQkFOR0FMT1JFMQ0wCwYDVQQK
DARIT1dBMRQwEgYDVQQLDAtTZXJ2ZXIgUm9vdDEOMAwGA1UEAwwFc3Jvb3QwggEi
MA0GCSqGSIb3DQEBAQUAA4IBDwAwggEKAoIBAQCy0NC/3OxQH67l2V15PS6Q5cVE
cMA4typuxO+K90qDsr056DYzOwZ4UHra7ELsuVJ1pC7msMyCsbrsD7LyVaMgtLS8
F8icfBjTRQ43ZAV/Ffs2EuZw3ufGKfUHOICox0yNDnFSx5MMeeX2jc0PByEZGprm
rj77stK7nk77lvPt43bv8n9B4hnhEIf4mfNOHAqe/7xuUtcRgr3oOkTDLRFvigup
n8GYWWEMK4GZgncYtOFXkb38DxSWexU/TMCack6ThFIYkaOp7x4PVMSemaT9PTCF
BuQGOz+4OhlflgFJBcQ+sVTFCulkwKhmaQDGoMH8TYJbX0jDkws1t+8DIyzVAgMB
AAGjMjAwMA8GA1UdEwEB/wQFMAMBAf8wHQYDVR0OBBYEFIeNx/t4+ZMPelexIfyu
aVYrEgxCMA0GCSqGSIb3DQEBCwUAA4IBAQAYFzpQ6LUsSElWf1C+Su8A4/H3kGef
zs+r6HFfQTPrlp9vN91K8jweaCEUslytxlt2VBrKAWmpVMTlwSDozxqWDbtr0S1M
re28p619pYiqZaFzyudEUMVE/sKwYF69rhz4kzHSspNtRPHwI/krYYcII01AvTFb
0TAAIvyv45nz70zSOP+NpISZgS5VjKWzbnmYj6Fib/ZZa04ozNWb6ysvYI26AYQf
6MPNBhSr3sboamx84K1q2dHEjZaMv9gsiiFOF+BF0vwfDd6e1xe2hgYH67XddD9P
PsCp/urgPcKK3Ohf+pEeyZeROmUXJnxzgC0V1T9hNsS8uSoMPgX/KYcL
-----END CERTIFICATE-----
