Certificate Request:
    Data:
        Version: 1 (0x0)
        Subject: C = IN, ST = KA, L = BANGALORE, O = HOWA, OU = Server Intermediate, CN = sint
        Subject Public Key Info:
            Public Key Algorithm: rsaEncryption
                Public-Key: (2048 bit)
                Modulus:
                    00:cd:d7:22:81:a9:24:f5:76:06:d7:c1:37:87:a8:
                    f8:d0:e0:81:d7:fa:2e:bb:d8:4e:74:76:94:e4:c3:
                    44:ec:7f:ad:c3:7c:43:a3:11:29:a2:d6:4c:08:1b:
                    e9:8b:31:2d:c0:4f:99:75:6d:63:8f:1d:18:1c:90:
                    dd:9d:69:a0:ef:87:15:e2:d8:94:f5:46:06:39:56:
                    86:88:ec:ad:4c:91:23:32:de:5b:32:1e:50:1f:32:
                    60:9c:69:97:e5:74:e1:de:15:e1:03:43:2d:96:c0:
                    90:52:02:5b:2a:85:4b:e2:22:44:f5:b0:4d:1b:c7:
                    77:b6:3d:20:e5:b1:69:a6:57:60:59:c7:79:2d:e7:
                    40:21:e4:8a:20:30:e5:56:8c:34:eb:3d:71:06:9e:
                    21:78:b8:97:67:dd:17:af:de:c1:79:83:19:25:fd:
                    28:b0:1c:71:b6:e1:39:9f:3d:f5:22:bb:44:96:53:
                    7b:9f:8c:66:69:57:42:4e:1b:f6:02:d5:83:7f:f7:
                    f6:44:e1:5a:0c:1f:34:3a:61:71:62:36:3e:ab:05:
                    e7:e6:21:f4:63:06:d5:99:4d:14:09:82:76:04:6e:
                    57:02:10:cb:68:01:dc:2b:c9:07:97:a9:db:5f:c2:
                    f5:d9:ac:c5:c6:2b:30:c3:28:01:63:59:2d:92:72:
                    18:cd
                Exponent: 65537 (0x10001)
        Attributes:
            (none)
            Requested Extensions:
    Signature Algorithm: sha256WithRSAEncryption
    Signature Value:
        2d:27:87:ff:37:b7:a2:0e:8d:fc:6d:d7:92:93:7f:1e:5a:d6:
        36:b2:a6:26:00:d6:2b:ea:3c:13:87:5e:2c:e0:a4:1e:fe:50:
        fe:bb:df:fa:7e:2f:56:e6:21:4d:98:88:a9:d5:b1:e8:32:bc:
        95:ec:2d:f1:d1:35:1c:b9:9a:53:52:d8:e4:18:9f:68:63:fa:
        33:1c:9a:a3:ac:84:1b:bc:af:86:30:be:30:73:e9:0f:92:77:
        60:ac:5c:60:df:ff:b3:28:21:53:99:fe:fe:1d:91:5f:21:3b:
        7d:6c:3e:f3:ae:73:20:91:90:ec:a4:4e:2b:9e:7b:f9:44:7d:
        cf:3b:79:e0:d9:f9:fb:0f:a3:38:a8:23:bd:32:70:61:d8:10:
        01:9d:15:04:aa:a5:a7:ce:81:b3:28:ed:f9:78:bc:ff:22:f2:
        d2:8e:b2:63:f9:d3:0f:cb:72:b0:b9:43:ea:2f:cf:1b:f3:c0:
        f3:22:ff:99:34:9d:85:fc:9a:5d:8e:64:62:6d:ef:21:74:ca:
        b1:70:05:5c:5e:8d:14:b0:fd:5e:df:ec:5c:04:80:de:27:1f:
        a4:71:86:48:74:66:98:00:81:4f:cb:02:f6:94:4a:12:e2:e6:
        05:5f:17:be:1b:c5:18:5c:90:25:a1:2f:94:1c:07:09:07:e2:
        b1:14:5f:da
-----BEGIN CERTIFICATE REQUEST-----
MIICrzCCAZcCAQAwajELMAkGA1UEBhMCSU4xCzAJBgNVBAgMAktBMRIwEAYDVQQH
DAlCQU5HQUxPUkUxDTALBgNVBAoMBEhPV0ExHDAaBgNVBAsME1NlcnZlciBJbnRl
cm1lZGlhdGUxDTALBgNVBAMMBHNpbnQwggEiMA0GCSqGSIb3DQEBAQUAA4IBDwAw
ggEKAoIBAQDN1yKBqST1dgbXwTeHqPjQ4IHX+i672E50dpTkw0Tsf63DfEOjESmi
1kwIG+mLMS3AT5l1bWOPHRgckN2daaDvhxXi2JT1RgY5VoaI7K1MkSMy3lsyHlAf
MmCcaZfldOHeFeEDQy2WwJBSAlsqhUviIkT1sE0bx3e2PSDlsWmmV2BZx3kt50Ah
5IogMOVWjDTrPXEGniF4uJdn3Rev3sF5gxkl/SiwHHG24TmfPfUiu0SWU3ufjGZp
V0JOG/YC1YN/9/ZE4VoMHzQ6YXFiNj6rBefmIfRjBtWZTRQJgnYEblcCEMtoAdwr
yQeXqdtfwvXZrMXGKzDDKAFjWS2SchjNAgMBAAGgADANBgkqhkiG9w0BAQsFAAOC
AQEALSeH/ze3og6N/G3XkpN/HlrWNrKmJgDWK+o8E4deLOCkHv5Q/rvf+n4vVuYh
TZiIqdWx6DK8lewt8dE1HLmaU1LY5BifaGP6Mxyao6yEG7yvhjC+MHPpD5J3YKxc
YN//syghU5n+/h2RXyE7fWw+865zIJGQ7KROK557+UR9zzt54Nn5+w+jOKgjvTJw
YdgQAZ0VBKqlp86Bsyjt+Xi8/yLy0o6yY/nTD8tysLlD6i/PG/PA8yL/mTSdhfya
XY5kYm3vIXTKsXAFXF6NFLD9Xt/sXASA3icfpHGGSHRmmACBT8sC9pRKEuLmBV8X
vhvFGFyQJaEvlBwHCQfisRRf2g==
-----END CERTIFICATE REQUEST-----
