Certificate:
    Data:
        Version: 3 (0x2)
        Serial Number:
            6c:13:f5:cc:f0:8e:7c:af:c0:83:12:5c:5c:68:26:40:35:28:d2:80
        Signature Algorithm: sha256WithRSAEncryption
        Issuer: C = IN, ST = KA, L = BANGALORE, O = HOWA, OU = Server Root, CN = sroot
        Validity
            Not Before: May  9 18:29:27 2025 GMT
            Not After : May  8 18:29:27 2030 GMT
        Subject: C = IN, ST = KA, L = BANGALORE, O = HOWA, OU = Server Intermediate, CN = sint
        Subject Public Key Info:
            Public Key Algorithm: rsaEncryption
                Public-Key: (2048 bit)
                Modulus:
                    00:cd:d7:22:81:a9:24:f5:76:06:d7:c1:37:87:a8:
                    f8:d0:e0:81:d7:fa:2e:bb:d8:4e:74:76:94:e4:c3:
                    44:ec:7f:ad:c3:7c:43:a3:11:29:a2:d6:4c:08:1b:
                    e9:8b:31:2d:c0:4f:99:75:6d:63:8f:1d:18:1c:90:
                    dd:9d:69:a0:ef:87:15:e2:d8:94:f5:46:06:39:56:
                    86:88:ec:ad:4c:91:23:32:de:5b:32:1e:50:1f:32:
                    60:9c:69:97:e5:74:e1:de:15:e1:03:43:2d:96:c0:
                    90:52:02:5b:2a:85:4b:e2:22:44:f5:b0:4d:1b:c7:
                    77:b6:3d:20:e5:b1:69:a6:57:60:59:c7:79:2d:e7:
                    40:21:e4:8a:20:30:e5:56:8c:34:eb:3d:71:06:9e:
                    21:78:b8:97:67:dd:17:af:de:c1:79:83:19:25:fd:
                    28:b0:1c:71:b6:e1:39:9f:3d:f5:22:bb:44:96:53:
                    7b:9f:8c:66:69:57:42:4e:1b:f6:02:d5:83:7f:f7:
                    f6:44:e1:5a:0c:1f:34:3a:61:71:62:36:3e:ab:05:
                    e7:e6:21:f4:63:06:d5:99:4d:14:09:82:76:04:6e:
                    57:02:10:cb:68:01:dc:2b:c9:07:97:a9:db:5f:c2:
                    f5:d9:ac:c5:c6:2b:30:c3:28:01:63:59:2d:92:72:
                    18:cd
                Exponent: 65537 (0x10001)
        X509v3 extensions:
            X509v3 Basic Constraints: critical
                CA:TRUE, pathlen:0
            X509v3 Subject Key Identifier: 
                ED:BB:D4:E5:CF:0F:72:36:53:E0:AC:29:D6:D5:03:D4:6C:6A:6B:0F
            X509v3 Authority Key Identifier: 
                E4:1F:94:0B:43:4F:C9:C8:21:E8:23:54:24:37:3B:9E:A3:85:DE:55
    Signature Algorithm: sha256WithRSAEncryption
    Signature Value:
        00:5f:bc:f5:c9:3f:21:41:86:c2:c8:7d:eb:1f:48:c5:ed:af:
        af:cd:66:49:3c:2d:60:98:be:91:20:6f:16:ee:ea:6f:7a:26:
        8f:3a:f1:f3:70:19:30:ae:ee:f8:d5:db:88:9e:2a:4b:a9:ba:
        61:77:e3:e1:b5:9a:8c:4d:f3:89:4d:cf:f0:28:0a:bb:ee:f6:
        41:5b:71:6d:66:b6:32:c0:37:f8:50:d2:ac:b2:3b:4b:1f:8f:
        d4:7e:78:e5:4a:eb:fe:d5:33:79:4b:22:52:72:d5:c6:c3:88:
        4f:8b:08:71:7f:f7:7a:cd:81:cd:11:60:d5:22:30:4c:54:d5:
        09:dd:2c:66:2b:29:3d:d9:cb:e0:03:67:ae:41:3e:fe:8b:b5:
        ce:da:51:ff:29:db:ed:0d:3a:99:6f:2b:18:92:3a:ad:90:90:
        31:5f:6d:bd:22:7f:c3:1d:d3:ef:25:5e:04:4f:5d:58:12:a9:
        f4:c0:ca:8e:9e:cb:18:61:57:d2:fc:e9:27:7f:89:9d:ff:eb:
        d0:ca:56:9c:99:b1:0f:be:af:0b:99:c7:15:8f:cb:63:34:9f:
        03:dc:91:37:74:6b:12:54:2f:a3:ab:f9:91:65:08:2d:fc:71:
        ee:b1:bb:d9:1b:df:62:a9:d3:94:0a:7d:3a:49:6b:c5:f0:02:
        a1:0a:d1:77
-----BEGIN CERTIFICATE-----
MIIDsTCCApmgAwIBAgIUbBP1zPCOfK/AgxJcXGgmQDUo0oAwDQYJKoZIhvcNAQEL
BQAwYzELMAkGA1UEBhMCSU4xCzAJBgNVBAgMAktBMRIwEAYDVQQHDAlCQU5HQUxP
UkUxDTALBgNVBAoMBEhPV0ExFDASBgNVBAsMC1NlcnZlciBSb290MQ4wDAYDVQQD
DAVzcm9vdDAeFw0yNTA1MDkxODI5MjdaFw0zMDA1MDgxODI5MjdaMGoxCzAJBgNV
BAYTAklOMQswCQYDVQQIDAJLQTESMBAGA1UEBwwJQkFOR0FMT1JFMQ0wCwYDVQQK
DARIT1dBMRwwGgYDVQQLDBNTZXJ2ZXIgSW50ZXJtZWRpYXRlMQ0wCwYDVQQDDARz
aW50MIIBIjANBgkqhkiG9w0BAQEFAAOCAQ8AMIIBCgKCAQEAzdcigakk9XYG18E3
h6j40OCB1/ouu9hOdHaU5MNE7H+tw3xDoxEpotZMCBvpizEtwE+ZdW1jjx0YHJDd
nWmg74cV4tiU9UYGOVaGiOytTJEjMt5bMh5QHzJgnGmX5XTh3hXhA0MtlsCQUgJb
KoVL4iJE9bBNG8d3tj0g5bFppldgWcd5LedAIeSKIDDlVow06z1xBp4heLiXZ90X
r97BeYMZJf0osBxxtuE5nz31IrtEllN7n4xmaVdCThv2AtWDf/f2ROFaDB80OmFx
YjY+qwXn5iH0YwbVmU0UCYJ2BG5XAhDLaAHcK8kHl6nbX8L12azFxiswwygBY1kt
knIYzQIDAQABo1YwVDASBgNVHRMBAf8ECDAGAQH/AgEAMB0GA1UdDgQWBBTtu9Tl
zw9yNlPgrCnW1QPUbGprDzAfBgNVHSMEGDAWgBTkH5QLQ0/JyCHoI1QkNzueo4Xe
VTANBgkqhkiG9w0BAQsFAAOCAQEAAF+89ck/IUGGwsh96x9Ixe2vr81mSTwtYJi+
kSBvFu7qb3omjzrx83AZMK7u+NXbiJ4qS6m6YXfj4bWajE3ziU3P8CgKu+72QVtx
bWa2MsA3+FDSrLI7Sx+P1H545Urr/tUzeUsiUnLVxsOIT4sIcX/3es2BzRFg1SIw
TFTVCd0sZispPdnL4ANnrkE+/ou1ztpR/ynb7Q06mW8rGJI6rZCQMV9tvSJ/wx3T
7yVeBE9dWBKp9MDKjp7LGGFX0vzpJ3+Jnf/r0MpWnJmxD76vC5nHFY/LYzSfA9yR
N3RrElQvo6v5kWUILfxx7rG72RvfYqnTlAp9OklrxfACoQrRdw==
-----END CERTIFICATE-----
