Certificate Request:
    Data:
        Version: 1 (0x0)
        Subject: C = IN, ST = KA, L = BANGALORE, O = HOWA, OU = Server Intermediate, CN = sint
        Subject Public Key Info:
            Public Key Algorithm: rsaEncryption
                Public-Key: (2048 bit)
                Modulus:
                    00:cf:d5:45:82:e7:0d:03:69:0f:36:41:8c:5b:6f:
                    db:cb:60:66:5e:01:59:e2:a9:0e:ba:29:cc:09:2a:
                    50:69:23:7a:cb:04:56:87:c0:09:a1:66:61:54:61:
                    8b:cb:d7:9b:c9:a5:05:4d:64:35:3d:86:dd:fb:97:
                    bc:7b:b1:f2:db:ed:22:31:30:d9:14:67:0f:b4:b4:
                    ac:cc:58:31:84:d7:92:ef:01:5c:14:2e:89:99:29:
                    7d:1b:c7:df:9d:a8:3b:12:f5:06:c5:03:3c:7e:e0:
                    39:2e:1d:c3:a5:e9:71:17:69:82:d9:f8:b3:fe:74:
                    ed:62:e4:69:2c:2a:b0:13:be:8b:6f:a3:9e:34:74:
                    c2:3f:0d:44:b1:7e:eb:1b:99:bb:7a:a5:88:61:29:
                    1b:ee:dd:29:19:f7:57:a3:23:7b:8a:de:8d:5f:45:
                    d8:34:2a:1d:1f:1d:26:6d:ae:17:f1:d0:6f:6d:40:
                    83:2a:48:72:c7:d8:2f:b4:f1:40:0e:85:6c:62:30:
                    20:12:06:c0:33:dc:8f:56:a6:28:3e:18:3a:e8:a0:
                    f4:76:1f:56:99:83:5e:73:9c:42:46:27:74:98:de:
                    b9:ae:c5:90:e0:a9:28:7d:52:30:31:e8:50:cf:c8:
                    cf:16:51:16:56:a7:af:bc:71:7f:46:15:e6:06:c9:
                    c6:ed
                Exponent: 65537 (0x10001)
        Attributes:
            (none)
            Requested Extensions:
    Signature Algorithm: sha256WithRSAEncryption
    Signature Value:
        4f:c7:60:d3:44:40:7c:f2:4d:bc:ce:8e:dd:42:65:06:9b:03:
        b3:3f:77:fd:1a:96:c6:53:85:11:01:fa:a5:52:1e:1b:35:54:
        aa:e1:45:26:8e:d4:48:e0:32:0f:ef:d6:81:5e:c4:1c:14:0c:
        5e:72:87:fc:fd:9b:db:6b:b4:b3:c9:a9:de:52:df:f7:de:46:
        ce:3d:95:4d:8a:74:33:89:df:56:97:c9:b9:bf:e6:ad:85:bb:
        bc:8f:00:f1:30:35:03:b5:bf:bb:2c:e2:be:9c:f1:99:ce:95:
        30:cf:0e:58:35:32:95:00:f2:7a:b6:25:1c:a5:b8:4d:84:16:
        fc:ac:6b:e2:97:59:2f:e3:49:8c:79:5f:8a:7e:c7:6f:0e:d3:
        d9:13:58:18:80:bd:cd:f2:04:d8:93:7a:f2:af:0a:2e:03:f9:
        7e:b8:9e:87:63:0e:8b:6c:f9:1f:9f:02:ce:07:8a:aa:1c:7d:
        07:f5:23:00:61:53:ee:46:c4:5d:7b:3f:de:1e:9b:5e:61:83:
        db:5d:13:22:6b:04:70:e4:ed:02:0a:65:18:70:c8:1b:9d:c0:
        5b:7d:b8:f5:32:10:38:07:eb:11:56:2b:8c:78:e6:6b:47:7f:
        4a:7e:7c:12:21:84:3d:bc:a6:69:1e:99:9a:ad:37:89:ba:99:
        e0:82:c1:ba
-----BEGIN CERTIFICATE REQUEST-----
MIICrzCCAZcCAQAwajELMAkGA1UEBhMCSU4xCzAJBgNVBAgMAktBMRIwEAYDVQQH
DAlCQU5HQUxPUkUxDTALBgNVBAoMBEhPV0ExHDAaBgNVBAsME1NlcnZlciBJbnRl
cm1lZGlhdGUxDTALBgNVBAMMBHNpbnQwggEiMA0GCSqGSIb3DQEBAQUAA4IBDwAw
ggEKAoIBAQDP1UWC5w0DaQ82QYxbb9vLYGZeAVniqQ66KcwJKlBpI3rLBFaHwAmh
ZmFUYYvL15vJpQVNZDU9ht37l7x7sfLb7SIxMNkUZw+0tKzMWDGE15LvAVwULomZ
KX0bx9+dqDsS9QbFAzx+4DkuHcOl6XEXaYLZ+LP+dO1i5GksKrATvotvo540dMI/
DUSxfusbmbt6pYhhKRvu3SkZ91ejI3uK3o1fRdg0Kh0fHSZtrhfx0G9tQIMqSHLH
2C+08UAOhWxiMCASBsAz3I9Wpig+GDrooPR2H1aZg15znEJGJ3SY3rmuxZDgqSh9
UjAx6FDPyM8WURZWp6+8cX9GFeYGycbtAgMBAAGgADANBgkqhkiG9w0BAQsFAAOC
AQEAT8dg00RAfPJNvM6O3UJlBpsDsz93/RqWxlOFEQH6pVIeGzVUquFFJo7USOAy
D+/WgV7EHBQMXnKH/P2b22u0s8mp3lLf995Gzj2VTYp0M4nfVpfJub/mrYW7vI8A
8TA1A7W/uyzivpzxmc6VMM8OWDUylQDyerYlHKW4TYQW/Kxr4pdZL+NJjHlfin7H
bw7T2RNYGIC9zfIE2JN68q8KLgP5frieh2MOi2z5H58CzgeKqhx9B/UjAGFT7kbE
XXs/3h6bXmGD210TImsEcOTtAgplGHDIG53AW3249TIQOAfrEVYrjHjma0d/Sn58
EiGEPbymaR6Zmq03ibqZ4ILBug==
-----END CERTIFICATE REQUEST-----
