Certificate:
    Data:
        Version: 3 (0x2)
        Serial Number:
            6c:13:f5:cc:f0:8e:7c:af:c0:83:12:5c:5c:68:26:40:35:28:d2:7f
        Signature Algorithm: sha256WithRSAEncryption
        Issuer: C = IN, ST = KA, L = BANGALORE, O = HOWA, OU = Server Root, CN = sroot
        Validity
            Not Before: May  5 03:03:51 2025 GMT
            Not After : May  5 03:03:51 2026 GMT
        Subject: C = IN, ST = KA, L = BANGALORE, O = HOWA, OU = Server Intermediate, CN = sint
        Subject Public Key Info:
            Public Key Algorithm: rsaEncryption
                Public-Key: (2048 bit)
                Modulus:
                    00:cf:d5:45:82:e7:0d:03:69:0f:36:41:8c:5b:6f:
                    db:cb:60:66:5e:01:59:e2:a9:0e:ba:29:cc:09:2a:
                    50:69:23:7a:cb:04:56:87:c0:09:a1:66:61:54:61:
                    8b:cb:d7:9b:c9:a5:05:4d:64:35:3d:86:dd:fb:97:
                    bc:7b:b1:f2:db:ed:22:31:30:d9:14:67:0f:b4:b4:
                    ac:cc:58:31:84:d7:92:ef:01:5c:14:2e:89:99:29:
                    7d:1b:c7:df:9d:a8:3b:12:f5:06:c5:03:3c:7e:e0:
                    39:2e:1d:c3:a5:e9:71:17:69:82:d9:f8:b3:fe:74:
                    ed:62:e4:69:2c:2a:b0:13:be:8b:6f:a3:9e:34:74:
                    c2:3f:0d:44:b1:7e:eb:1b:99:bb:7a:a5:88:61:29:
                    1b:ee:dd:29:19:f7:57:a3:23:7b:8a:de:8d:5f:45:
                    d8:34:2a:1d:1f:1d:26:6d:ae:17:f1:d0:6f:6d:40:
                    83:2a:48:72:c7:d8:2f:b4:f1:40:0e:85:6c:62:30:
                    20:12:06:c0:33:dc:8f:56:a6:28:3e:18:3a:e8:a0:
                    f4:76:1f:56:99:83:5e:73:9c:42:46:27:74:98:de:
                    b9:ae:c5:90:e0:a9:28:7d:52:30:31:e8:50:cf:c8:
                    cf:16:51:16:56:a7:af:bc:71:7f:46:15:e6:06:c9:
                    c6:ed
                Exponent: 65537 (0x10001)
        X509v3 extensions:
            X509v3 Basic Constraints: critical
                CA:TRUE, pathlen:0
            X509v3 Subject Key Identifier: 
                4A:C7:DD:F3:CB:8E:95:E9:E7:19:48:4F:F9:56:C3:72:2B:8C:8C:12
            X509v3 Authority Key Identifier: 
                87:8D:C7:FB:78:F9:93:0F:7A:57:B1:21:FC:AE:69:56:2B:12:0C:42
    Signature Algorithm: sha256WithRSAEncryption
    Signature Value:
        46:15:3d:13:92:49:a4:ee:15:20:d4:c5:cf:9a:d9:51:e4:30:
        9a:4d:dc:2e:3c:e9:0e:b1:eb:8e:44:08:f2:4e:c8:10:64:92:
        47:93:39:d7:18:6a:37:8e:40:3a:62:e5:09:77:a9:4f:c5:07:
        ec:f4:c6:ce:dd:8e:dc:f1:81:29:aa:2d:d5:a8:8d:c1:5b:04:
        0e:eb:68:70:0f:67:bb:c6:4e:a3:d7:c3:01:6b:6e:a9:22:ba:
        c1:dc:cb:0f:6b:07:2c:bf:33:aa:f6:79:91:e4:73:0b:93:7f:
        fb:bc:46:a0:0d:55:13:4d:fc:5d:43:a0:1a:d3:bb:76:b5:43:
        79:cc:2f:d2:09:47:e3:3a:c6:44:9d:9b:50:f3:f4:71:bb:75:
        5d:14:c5:f4:08:aa:1b:a2:1a:e5:5c:98:65:35:8c:b2:dc:c6:
        84:5a:8c:13:1a:c6:61:5a:69:c9:76:6b:b0:44:97:90:24:94:
        d0:a9:b6:46:5d:9f:6f:74:bb:73:1d:26:e3:af:d4:1d:9f:8e:
        17:01:ef:2c:5b:12:3c:ca:a8:9c:6a:cc:c9:90:47:53:59:9f:
        ea:98:03:27:c7:48:81:92:6c:c5:34:de:23:a0:d7:5b:59:8c:
        53:60:f6:8f:0a:3c:52:9c:0a:43:47:6c:b5:bc:d3:80:fd:28:
        bb:80:90:ce
-----BEGIN CERTIFICATE-----
MIIDsTCCApmgAwIBAgIUbBP1zPCOfK/AgxJcXGgmQDUo0n8wDQYJKoZIhvcNAQEL
BQAwYzELMAkGA1UEBhMCSU4xCzAJBgNVBAgMAktBMRIwEAYDVQQHDAlCQU5HQUxP
UkUxDTALBgNVBAoMBEhPV0ExFDASBgNVBAsMC1NlcnZlciBSb290MQ4wDAYDVQQD
DAVzcm9vdDAeFw0yNTA1MDUwMzAzNTFaFw0yNjA1MDUwMzAzNTFaMGoxCzAJBgNV
BAYTAklOMQswCQYDVQQIDAJLQTESMBAGA1UEBwwJQkFOR0FMT1JFMQ0wCwYDVQQK
DARIT1dBMRwwGgYDVQQLDBNTZXJ2ZXIgSW50ZXJtZWRpYXRlMQ0wCwYDVQQDDARz
aW50MIIBIjANBgkqhkiG9w0BAQEFAAOCAQ8AMIIBCgKCAQEAz9VFgucNA2kPNkGM
W2/by2BmXgFZ4qkOuinMCSpQaSN6ywRWh8AJoWZhVGGLy9ebyaUFTWQ1PYbd+5e8
e7Hy2+0iMTDZFGcPtLSszFgxhNeS7wFcFC6JmSl9G8ffnag7EvUGxQM8fuA5Lh3D
pelxF2mC2fiz/nTtYuRpLCqwE76Lb6OeNHTCPw1EsX7rG5m7eqWIYSkb7t0pGfdX
oyN7it6NX0XYNCodHx0mba4X8dBvbUCDKkhyx9gvtPFADoVsYjAgEgbAM9yPVqYo
Phg66KD0dh9WmYNec5xCRid0mN65rsWQ4KkofVIwMehQz8jPFlEWVqevvHF/RhXm
BsnG7QIDAQABo1YwVDASBgNVHRMBAf8ECDAGAQH/AgEAMB0GA1UdDgQWBBRKx93z
y46V6ecZSE/5VsNyK4yMEjAfBgNVHSMEGDAWgBSHjcf7ePmTD3pXsSH8rmlWKxIM
QjANBgkqhkiG9w0BAQsFAAOCAQEARhU9E5JJpO4VINTFz5rZUeQwmk3cLjzpDrHr
jkQI8k7IEGSSR5M51xhqN45AOmLlCXepT8UH7PTGzt2O3PGBKaot1aiNwVsEDuto
cA9nu8ZOo9fDAWtuqSK6wdzLD2sHLL8zqvZ5keRzC5N/+7xGoA1VE038XUOgGtO7
drVDecwv0glH4zrGRJ2bUPP0cbt1XRTF9AiqG6Ia5VyYZTWMstzGhFqMExrGYVpp
yXZrsESXkCSU0Km2Rl2fb3S7cx0m46/UHZ+OFwHvLFsSPMqonGrMyZBHU1mf6pgD
J8dIgZJsxTTeI6DXW1mMU2D2jwo8UpwKQ0dstbzTgP0ou4CQzg==
-----END CERTIFICATE-----
