Certificate Request:
    Data:
        Version: 1 (0x0)
        Subject: C = IN, ST = KA, L = BANGALORE, O = HOWA, OU = Server Root, CN = sroot
        Subject Public Key Info:
            Public Key Algorithm: rsaEncryption
                Public-Key: (2048 bit)
                Modulus:
                    00:b2:d0:d0:bf:dc:ec:50:1f:ae:e5:d9:5d:79:3d:
                    2e:90:e5:c5:44:70:c0:38:b7:2a:6e:c4:ef:8a:f7:
                    4a:83:b2:bd:39:e8:36:33:3b:06:78:50:7a:da:ec:
                    42:ec:b9:52:75:a4:2e:e6:b0:cc:82:b1:ba:ec:0f:
                    b2:f2:55:a3:20:b4:b4:bc:17:c8:9c:7c:18:d3:45:
                    0e:37:64:05:7f:15:fb:36:12:e6:70:de:e7:c6:29:
                    f5:07:38:80:a8:c7:4c:8d:0e:71:52:c7:93:0c:79:
                    e5:f6:8d:cd:0f:07:21:19:1a:9a:e6:ae:3e:fb:b2:
                    d2:bb:9e:4e:fb:96:f3:ed:e3:76:ef:f2:7f:41:e2:
                    19:e1:10:87:f8:99:f3:4e:1c:0a:9e:ff:bc:6e:52:
                    d7:11:82:bd:e8:3a:44:c3:2d:11:6f:8a:0b:a9:9f:
                    c1:98:59:61:0c:2b:81:99:82:77:18:b4:e1:57:91:
                    bd:fc:0f:14:96:7b:15:3f:4c:c0:9a:72:4e:93:84:
                    52:18:91:a3:a9:ef:1e:0f:54:c4:9e:99:a4:fd:3d:
                    30:85:06:e4:06:3b:3f:b8:3a:19:5f:96:01:49:05:
                    c4:3e:b1:54:c5:0a:e9:64:c0:a8:66:69:00:c6:a0:
                    c1:fc:4d:82:5b:5f:48:c3:93:0b:35:b7:ef:03:23:
                    2c:d5
                Exponent: 65537 (0x10001)
        Attributes:
            (none)
            Requested Extensions:
    Signature Algorithm: sha256WithRSAEncryption
    Signature Value:
        20:5e:8b:5f:6c:b0:80:9e:6a:2c:87:2b:76:f3:0c:c4:ef:b0:
        38:22:24:69:71:54:02:74:aa:c0:fb:44:b9:3f:53:62:bf:e4:
        6a:9c:8c:47:28:0c:8d:e3:c0:f6:64:37:ee:27:58:c1:1f:8f:
        2a:2f:36:d3:27:53:7a:7d:ab:51:e5:ff:a6:54:39:85:53:8a:
        db:51:ff:33:c3:f1:6a:8b:1e:60:5c:57:b5:ef:e8:c0:13:e2:
        41:9b:a4:75:47:f7:3e:a7:59:12:b9:88:a9:99:bf:fe:b1:0a:
        ac:b8:d5:f0:d6:0e:86:74:c4:ed:e9:d6:49:af:6d:9c:e4:4a:
        09:d7:a1:68:af:35:48:b4:b8:4c:ee:06:b7:ba:b6:e7:9c:79:
        46:a6:7c:ad:dc:08:0c:ad:0a:0d:17:0f:3f:00:f8:ad:b6:9b:
        f8:5a:1f:e7:16:06:40:91:c8:8d:81:d9:7c:18:24:ed:3b:18:
        5d:d9:e6:06:f1:67:95:41:ad:63:cd:be:cb:e8:e2:f6:62:4d:
        32:d8:7f:0d:99:c8:98:9b:3b:60:49:e0:34:63:60:c4:d5:e2:
        fa:24:0d:3b:5e:3c:ef:45:91:6a:cb:0e:bf:1d:4f:2e:3b:ff:
        d1:dc:97:88:de:3a:17:7b:b7:5f:cd:2b:b4:c8:41:f2:2a:f4:
        57:32:5b:ea
-----BEGIN CERTIFICATE REQUEST-----
MIICqDCCAZACAQAwYzELMAkGA1UEBhMCSU4xCzAJBgNVBAgMAktBMRIwEAYDVQQH
DAlCQU5HQUxPUkUxDTALBgNVBAoMBEhPV0ExFDASBgNVBAsMC1NlcnZlciBSb290
MQ4wDAYDVQQDDAVzcm9vdDCCASIwDQYJKoZIhvcNAQEBBQADggEPADCCAQoCggEB
ALLQ0L/c7FAfruXZXXk9LpDlxURwwDi3Km7E74r3SoOyvTnoNjM7BnhQetrsQuy5
UnWkLuawzIKxuuwPsvJVoyC0tLwXyJx8GNNFDjdkBX8V+zYS5nDe58Yp9Qc4gKjH
TI0OcVLHkwx55faNzQ8HIRkamuauPvuy0rueTvuW8+3jdu/yf0HiGeEQh/iZ804c
Cp7/vG5S1xGCveg6RMMtEW+KC6mfwZhZYQwrgZmCdxi04VeRvfwPFJZ7FT9MwJpy
TpOEUhiRo6nvHg9UxJ6ZpP09MIUG5AY7P7g6GV+WAUkFxD6xVMUK6WTAqGZpAMag
wfxNgltfSMOTCzW37wMjLNUCAwEAAaAAMA0GCSqGSIb3DQEBCwUAA4IBAQAgXotf
bLCAnmoshyt28wzE77A4IiRpcVQCdKrA+0S5P1Niv+RqnIxHKAyN48D2ZDfuJ1jB
H48qLzbTJ1N6fatR5f+mVDmFU4rbUf8zw/Fqix5gXFe17+jAE+JBm6R1R/c+p1kS
uYipmb/+sQqsuNXw1g6GdMTt6dZJr22c5EoJ16ForzVItLhM7ga3urbnnHlGpnyt
3AgMrQoNFw8/APittpv4Wh/nFgZAkciNgdl8GCTtOxhd2eYG8WeVQa1jzb7L6OL2
Yk0y2H8NmciYmztgSeA0Y2DE1eL6JA07XjzvRZFqyw6/HU8uO//R3JeI3joXe7df
zSu0yEHyKvRXMlvq
-----END CERTIFICATE REQUEST-----
