Certificate:
    Data:
        Version: 3 (0x2)
        Serial Number:
            3e:0d:fb:b8:f4:37:32:6a:ba:75:73:47:b1:7a:2f:af:75:b4:10:5d
        Signature Algorithm: sha256WithRSAEncryption
        Issuer: C = IN, ST = KA, L = BANGALORE, O = HOWA, OU = Server Root, CN = sroot
        Validity
            Not Before: Feb 23 08:03:49 2023 GMT
            Not After : Feb 20 08:03:49 2033 GMT
        Subject: C = IN, ST = KA, L = BANGALORE, O = HOWA, OU = Server Root, CN = sroot
        Subject Public Key Info:
            Public Key Algorithm: rsaEncryption
                RSA Public-Key: (3072 bit)
                Modulus:
                    00:ad:8b:80:92:c5:d8:a8:c1:b1:b7:75:e2:be:34:
                    bd:4c:44:3d:a8:c3:c2:65:1b:0f:aa:ef:b2:eb:be:
                    46:59:aa:1b:42:61:fe:e7:c7:12:c6:6e:bd:e8:cb:
                    a7:64:8b:af:f9:7a:72:14:ea:88:0c:00:f9:3e:28:
                    27:b7:a0:4b:e7:20:48:d2:b7:1d:bb:47:96:72:19:
                    73:c3:c7:1c:90:04:f7:10:09:0b:3b:2d:62:3b:ac:
                    c8:9f:46:e9:76:47:cd:24:b4:aa:08:2e:fd:05:ae:
                    1b:82:b8:f2:c0:19:21:20:9f:35:b3:ff:ac:a6:02:
                    b8:14:f6:df:a6:ef:e0:e4:06:3d:a0:d7:30:e0:9a:
                    15:63:20:57:0a:78:bb:6e:9b:a3:9e:5d:f8:a6:5f:
                    13:f8:ae:4c:23:c2:b6:c7:a2:7b:a2:6b:f1:e6:eb:
                    7d:e1:f9:b4:07:2d:cc:65:6b:17:7c:a6:4f:97:c5:
                    f0:55:84:92:77:4f:b9:82:63:7d:5d:0e:8e:0b:bf:
                    06:cd:19:d6:c6:00:d3:71:1a:3d:71:e2:d1:43:f4:
                    96:73:a5:f2:de:c8:92:a4:65:50:b1:66:f6:b9:88:
                    00:f8:36:c4:1c:1b:75:4d:0d:0f:ea:43:e6:d2:f2:
                    ea:c1:c1:8a:76:f7:88:c6:29:fe:e4:e2:05:7b:7c:
                    f9:f3:bb:f9:5b:06:b8:31:f2:1b:f0:cf:ea:94:5e:
                    c4:7f:1e:88:6e:e6:62:fb:66:9f:c7:6f:20:21:d6:
                    03:14:d5:b2:20:3e:19:1e:b1:e6:09:ac:8d:ed:25:
                    a7:4b:d9:9e:07:62:36:06:18:12:2b:3b:7d:05:b6:
                    26:cd:4e:a1:dc:83:28:2d:62:96:34:3a:ac:1e:fb:
                    e9:0e:f0:f5:52:37:6d:81:d4:9c:d2:07:02:c1:6c:
                    22:a2:6e:fa:f1:30:81:a1:df:51:88:62:33:40:ca:
                    e4:de:e2:a2:51:b8:06:b8:dd:98:c8:8d:f2:f2:53:
                    1b:95:03:01:9c:db:65:26:5c:99
                Exponent: 65537 (0x10001)
        X509v3 extensions:
            X509v3 Subject Key Identifier:
                CC:7D:FB:5A:C5:50:D0:AF:9F:4F:02:14:B6:73:A6:03:6E:2C:6C:DB
            X509v3 Authority Key Identifier:
                keyid:CC:7D:FB:5A:C5:50:D0:AF:9F:4F:02:14:B6:73:A6:03:6E:2C:6C:DB

            X509v3 Basic Constraints: critical
                CA:TRUE
            Netscape Comment:
                OpenSSL Generated Certificate
    Signature Algorithm: sha256WithRSAEncryption
         5e:3b:6d:e0:38:72:fb:48:ff:d9:d3:6b:e9:4f:94:bc:71:d0:
         c1:e9:69:83:97:91:32:70:4e:4b:12:b2:5d:9e:c1:f9:93:28:
         3b:d7:73:a0:66:f4:06:d7:74:60:c0:40:a8:13:4d:0f:2b:ad:
         b8:51:e6:1a:3d:12:5c:42:39:58:d5:8d:d1:3e:ca:33:5e:de:
         cc:89:5a:dd:89:4b:aa:17:21:ab:d3:20:e9:59:61:d8:93:0e:
         d1:f1:d8:2e:5c:17:02:ce:19:12:80:65:bd:93:c4:89:66:f6:
         5f:58:41:29:66:37:ea:54:c5:1d:b9:ba:17:ad:bb:ef:40:dd:
         35:71:e5:e2:09:86:ae:b2:19:2d:58:ca:c3:f2:3b:70:be:bd:
         8f:98:d4:e7:1a:4e:f0:7d:d4:58:1a:2d:b5:cf:ee:47:e1:e4:
         c1:0f:78:33:6c:23:55:47:bf:ef:a2:d2:56:a4:46:49:bc:25:
         76:e6:9a:a0:43:51:f8:99:3b:f5:9c:6e:b6:07:71:95:7d:35:
         dd:50:c3:98:db:cf:45:c7:18:5e:b4:a1:2c:b9:e4:db:41:c9:
         a5:99:8f:c9:ed:a2:83:79:4c:b2:d5:74:9b:05:0b:66:e8:fa:
         7f:ae:ff:d9:93:68:d1:1f:f9:0c:bb:2f:00:40:58:7e:72:a2:
         fc:9d:c3:ae:ad:8b:01:34:0e:05:13:80:7f:06:df:62:af:8a:
         f8:ed:c3:3c:f1:06:af:18:09:68:62:03:e5:9e:9c:30:e2:f2:
         ea:3f:29:ca:ea:92:1a:01:c2:a3:ce:c4:c5:e2:78:34:bb:ed:
         11:2d:8b:d7:06:07:4a:04:81:05:fa:c2:d4:6a:d0:04:d0:98:
         6a:4a:3d:d5:39:25:e0:cb:2f:44:a2:c4:c9:2d:04:07:ae:ea:
         02:85:df:d9:7f:4d:a9:5e:5b:fa:77:25:92:64:9f:19:b8:17:
         34:30:1a:60:94:1f:f7:88:e9:aa:e1:e7:80:91:85:8b:03:77:
         06:25:a6:71:5d:af
-----BEGIN CERTIFICATE-----
MIIE1jCCAz6gAwIBAgIUPg37uPQ3Mmq6dXNHsXovr3W0EF0wDQYJKoZIhvcNAQEL
BQAwYzELMAkGA1UEBhMCSU4xCzAJBgNVBAgMAktBMRIwEAYDVQQHDAlCQU5HQUxP
UkUxDTALBgNVBAoMBEhPV0ExFDASBgNVBAsMC1NlcnZlciBSb290MQ4wDAYDVQQD
DAVzcm9vdDAeFw0yMzAyMjMwODAzNDlaFw0zMzAyMjAwODAzNDlaMGMxCzAJBgNV
BAYTAklOMQswCQYDVQQIDAJLQTESMBAGA1UEBwwJQkFOR0FMT1JFMQ0wCwYDVQQK
DARIT1dBMRQwEgYDVQQLDAtTZXJ2ZXIgUm9vdDEOMAwGA1UEAwwFc3Jvb3QwggGi
MA0GCSqGSIb3DQEBAQUAA4IBjwAwggGKAoIBgQCti4CSxdiowbG3deK+NL1MRD2o
w8JlGw+q77LrvkZZqhtCYf7nxxLGbr3oy6dki6/5enIU6ogMAPk+KCe3oEvnIEjS
tx27R5ZyGXPDxxyQBPcQCQs7LWI7rMifRul2R80ktKoILv0FrhuCuPLAGSEgnzWz
/6ymArgU9t+m7+DkBj2g1zDgmhVjIFcKeLtum6OeXfimXxP4rkwjwrbHonuia/Hm
633h+bQHLcxlaxd8pk+XxfBVhJJ3T7mCY31dDo4LvwbNGdbGANNxGj1x4tFD9JZz
pfLeyJKkZVCxZva5iAD4NsQcG3VNDQ/qQ+bS8urBwYp294jGKf7k4gV7fPnzu/lb
Brgx8hvwz+qUXsR/Hohu5mL7Zp/HbyAh1gMU1bIgPhkeseYJrI3tJadL2Z4HYjYG
GBIrO30FtibNTqHcgygtYpY0Oqwe++kO8PVSN22B1JzSBwLBbCKibvrxMIGh31GI
YjNAyuTe4qJRuAa43ZjIjfLyUxuVAwGc22UmXJkCAwEAAaOBgTB/MB0GA1UdDgQW
BBTMfftaxVDQr59PAhS2c6YDbixs2zAfBgNVHSMEGDAWgBTMfftaxVDQr59PAhS2
c6YDbixs2zAPBgNVHRMBAf8EBTADAQH/MCwGCWCGSAGG+EIBDQQfFh1PcGVuU1NM
IEdlbmVyYXRlZCBDZXJ0aWZpY2F0ZTANBgkqhkiG9w0BAQsFAAOCAYEAXjtt4Dhy
+0j/2dNr6U+UvHHQwelpg5eRMnBOSxKyXZ7B+ZMoO9dzoGb0Btd0YMBAqBNNDyut
uFHmGj0SXEI5WNWN0T7KM17ezIla3YlLqhchq9Mg6Vlh2JMO0fHYLlwXAs4ZEoBl
vZPEiWb2X1hBKWY36lTFHbm6F62770DdNXHl4gmGrrIZLVjKw/I7cL69j5jU5xpO
8H3UWBottc/uR+HkwQ94M2wjVUe/76LSVqRGSbwlduaaoENR+Jk79ZxutgdxlX01
3VDDmNvPRccYXrShLLnk20HJpZmPye2ig3lMstV0mwULZuj6f67/2ZNo0R/5DLsv
AEBYfnKi/J3Drq2LATQOBROAfwbfYq+K+O3DPPEGrxgJaGID5Z6cMOLy6j8pyuqS
GgHCo87ExeJ4NLvtES2L1wYHSgSBBfrC1GrQBNCYako91Tkl4MsvRKLEyS0EB67q
AoXf2X9NqV5b+nclkmSfGbgXNDAaYJQf94jpquHngJGFiwN3BiWmcV2v
-----END CERTIFICATE-----
